(lp0
(lp1
F2.5668463867144022
aF0.13527993948798017
aI4071
aa(lp2
F93.51027156348852
aF-1.6438801471007665
aI50000
aa(lp3
F0.6597164398186736
aF-0.06775104190562788
aI50000
aa(lp4
F2.5420914337720255
aF0.12182746967745067
aI4786
aa(lp5
F5.6254418243559865
aF-0.7294461639411155
aI26405
aa(lp6
F1.7663852968395846
aF-0.054590323534740734
aI2355
aa(lp7
F3.199849574693128
aF-0.03033640757412581
aI5567
aa(lp8
F3.376536067220351
aF-0.4555306446888627
aI3081
aa(lp9
F1.384279117469734
aF-0.17343675752712082
aI2578
aa(lp10
F3.4122371626465418
aF-0.28892856304633924
aI3972
aa(lp11
F100.0826393876572
aF-3.4640357550755865
aI49977
aa(lp12
F4.757022206646661
aF-0.5597420625613588
aI5494
aa(lp13
F8.730638477345133
aF-0.332875874011285
aI8299
aa(lp14
F100.07947236871863
aF-1.5643359971240482
aI48120
aa(lp15
F100.08115394341573
aF-3.9066581515957046
aI48799
aa(lp16
F1.5476010070255373
aF-0.11114957087112792
aI1484
aa(lp17
F3.960581519828327
aF-0.3238988310905747
aI4473
aa(lp18
F0.3899506402161627
aF0.24116126054545658
aI881
aa(lp19
F100.09085412164849
aF-1.7017223055017336
aI46652
aa(lp20
F0.6840534712743199
aF0.03045245578412532
aI1778
aa(lp21
F100.0828111671747
aF-1.859946807725119
aI48347
aa(lp22
F3.374506636009397
aF-0.19890229666030743
aI6573
aa(lp23
F7.424254465987089
aF0.35979498663342285
aI21260
aa(lp24
F7.633810087935134
aF-0.001355535941929012
aI37315
aa(lp25
F2.516190931752743
aF-0.15351696609598972
aI2386
aa(lp26
F80.43125438758928
aF-1.5871825698753192
aI50000
aa(lp27
F100.08182853809707
aF0.6557214764781585
aI46561
aa(lp28
F53.87497664204332
aF-0.30226093039076185
aI50000
aa(lp29
F8.152161961783259
aF-1.0695924017557945
aI14402
aa(lp30
F1.759923747018426
aF-0.08052954496810441
aI1967
aa(lp31
F0.3580473657387544
aF-0.17200170616432986
aI1474
aa(lp32
F6.421636249052139
aF0.43534316139969825
aI8149
aa(lp33
F2.9310087618970737
aF-0.05557634688132002
aI13727
aa(lp34
F1.4136834143753119
aF0.007918953106557367
aI1760
aa(lp35
F100.0799829026375
aF-0.9060681885943068
aI47415
aa(lp36
F6.866905148242001
aF-0.3518110689719875
aI12403
aa(lp37
F7.653122442386965
aF0.16383645743206085
aI8535
aa(lp38
F4.15192446625968
aF-0.032245863132447664
aI5691
aa(lp39
F1.411294550322134
aF0.026435363966982137
aI1693
aa(lp40
F0.2962083629017022
aF-0.09783868058639296
aI853
aa(lp41
F2.067704394244551
aF0.1333828604490416
aI1723
aa(lp42
F8.532084195695662
aF-0.4969550831836017
aI10640
aa(lp43
F1.2055441221197711
aF-0.41599729671884267
aI2035
aa(lp44
F1.3845775258245199
aF0.0009747917854983765
aI50000
aa(lp45
F6.410072971254124
aF-0.44165506118319037
aI9030
aa(lp46
F3.568653829764633
aF-0.5074805904934915
aI2968
aa(lp47
F1.5076920845305741
aF-0.20643436348579708
aI2175
aa(lp48
F7.665990078579663
aF-0.6939765245552406
aI9069
aa(lp49
F0.4733937950883279
aF-0.010536954701810188
aI296
aa(lp50
F-0.0003809889521759159
aF0.16132650963347284
aI1466
aa(lp51
F3.3475700726514206
aF-0.6799574671284435
aI7523
aa(lp52
F1.2142108976149404
aF0.05612580367790253
aI1448
aa(lp53
F1.9743316423598223
aF-0.1458401816877069
aI2761
aa(lp54
F3.028026246137823
aF-0.014278401043634202
aI4069
aa(lp55
F2.494461366307214
aF-0.2072607062639179
aI3054
aa(lp56
F3.4620499702140384
aF-0.336812257949737
aI3675
aa(lp57
F0.847651811791358
aF0.003065908108839591
aI614
aa(lp58
F3.5640486069017303
aF0.05736267920529485
aI3735
aa(lp59
F3.721455244444349
aF-0.33954679721925296
aI4152
aa(lp60
F100.08636107607697
aF-1.8596154028328473
aI46454
aa(lp61
F6.754735363017426
aF-0.8070815909470558
aI8953
aa(lp62
F2.4692935959284124
aF0.003670502413086532
aI6266
aa(lp63
F8.023998888481842
aF-0.30757894934805824
aI12349
aa(lp64
F2.10516707273035
aF0.07756438566402632
aI2018
aa(lp65
F3.512851345705775
aF-0.533291151840126
aI4297
aa(lp66
F0.7336922693483543
aF-0.022165633555660265
aI503
aa(lp67
F0.9092298625314046
aF-0.14773025868574488
aI1030
aa(lp68
F7.588237596238314
aF-0.5512432117424122
aI28386
aa(lp69
F5.434046907794883
aF-0.26650899671121153
aI8769
aa(lp70
F1.2656438391444467
aF0.12345207795824661
aI50000
aa(lp71
F63.3014641707807
aF-0.9894213047734752
aI50000
aa(lp72
F60.63871385450319
aF-0.6071449586273199
aI50000
aa(lp73
F65.76365292879176
aF0.05697744660653287
aI50000
aa(lp74
F2.278983692972969
aF-0.19747332989050873
aI3307
aa(lp75
F100.08761010515525
aF-0.9162112036052047
aI48185
aa(lp76
F99.42676143281932
aF-1.3968116946490057
aI50000
aa(lp77
F3.4266115442925766
aF-0.5332568118102747
aI50000
aa(lp78
F63.91448647374081
aF-0.6118478677013646
aI50000
aa(lp79
F2.997706757046735
aF0.08261032544222044
aI3115
aa(lp80
F5.3133447168843695
aF0.45695969790721297
aI5677
aa(lp81
F3.5494541783610485
aF0.22300353430133815
aI24511
aa(lp82
F4.772110315430309
aF-0.7494990703967479
aI7948
aa(lp83
F7.60640847468588
aF-0.9356866443857101
aI50000
aa(lp84
F100.08209172549311
aF-1.553044719025595
aI48398
aa(lp85
F4.290883717227623
aF-0.2986102243522575
aI39807
aa(lp86
F4.746079180288918
aF-0.10476566654810161
aI7152
aa(lp87
F7.257798940831218
aF-0.8681123884013646
aI9038
aa(lp88
F8.08292449084467
aF0.015567184439441936
aI17112
aa(lp89
F73.88622034377848
aF-0.7790436742478357
aI50000
aa(lp90
F7.45834584286294
aF0.14214527926010495
aI7187
aa(lp91
F0.9202164737055161
aF0.18684688601381635
aI2643
aa(lp92
F3.3697563811498084
aF-0.4798238891060667
aI14940
aa(lp93
F2.3728204182952846
aF-0.22992284788350686
aI50000
aa(lp94
F2.5003269014227594
aF0.08814619349921063
aI2957
aa(lp95
F91.62377630587454
aF-1.3238596196218246
aI50000
aa(lp96
F5.157163026351628
aF-0.6696475991204853
aI37122
aa(lp97
F0.21942763277206873
aF0.07485284284211652
aI50000
aa(lp98
F0.3825856322764896
aF0.49487694009692496
aI3589
aa(lp99
F4.866031524601347
aF-0.00927301382766346
aI5180
aa(lp100
F100.08682831970405
aF-2.350539779772519
aI46690
aa(lp101
F1.4597170269880952
aF-0.05199983941225824
aI2130
aa(lp102
F2.055793639210353
aF-0.275546177220558
aI14721
aa(lp103
F100.08137974817019
aF0.3265369479200686
aI46475
aa(lp104
F74.01719537270601
aF-0.9569364675868821
aI50000
aa(lp105
F6.870001618226387
aF-0.2974125602979217
aI13037
aa(lp106
F81.84924072855465
aF-2.1800511565458676
aI50000
aa(lp107
F7.9089191893629645
aF-0.6511557990571529
aI7931
aa(lp108
F2.25393684582725
aF-0.048065847331452964
aI4178
aa(lp109
F2.140184407725213
aF0.01392621038126255
aI3401
aa(lp110
F100.07929519924984
aF-0.5861211261383649
aI45999
aa(lp111
F100.08166143090666
aF1.0423095880288171
aI45724
aa(lp112
F0.9007380464098909
aF-0.12440767012648513
aI792
aa(lp113
F1.634490145484123
aF-0.14563698448097856
aI1800
aa(lp114
F0.42722772876475906
aF-0.12623130447661626
aI559
aa(lp115
F2.957227725067071
aF-0.5840297510314247
aI4602
aa(lp116
F5.293671076156581
aF-0.6551725161498948
aI15195
aa(lp117
F7.529298665119643
aF-0.18790095443210425
aI22218
aa(lp118
F3.4489522349858484
aF-0.1864303306635122
aI6066
aa(lp119
F2.08949003708277
aF-0.5586937990511688
aI2143
aa(lp120
F4.226624949344101
aF-0.12097575493824973
aI19091
aa(lp121
F2.1809668650143066
aF0.016781388227647184
aI1484
aa(lp122
F7.964828567046867
aF-0.22507632616500026
aI12611
aa(lp123
F100.08582817791853
aF-1.4682797889694315
aI46013
aa(lp124
F2.23963631442823
aF0.19541326775465748
aI9536
aa(lp125
F0.33365201904857944
aF-0.0152474149198735
aI474
aa(lp126
F100.0910717841195
aF-1.957405940889916
aI47894
aa(lp127
F7.057731975573984
aF-0.11833304729203097
aI11479
aa(lp128
F5.609168331910934
aF-0.574586474699717
aI6375
aa(lp129
F2.9931524175206077
aF0.04133558841034443
aI7858
aa(lp130
F3.985072583085534
aF-0.5863864259045021
aI3701
aa(lp131
F3.745483190398983
aF-0.1605394240369587
aI5148
aa(lp132
F0.4111069363544521
aF-0.12348566709246926
aI390
aa(lp133
F0.9389298882674834
aF-0.10532296545253234
aI1117
aa(lp134
F2.715663163780694
aF-0.2777253451619658
aI2602
aa(lp135
F97.45519232349088
aF-0.44294680825452815
aI50000
aa(lp136
F0.24927812745542338
aF0.0811373672152803
aI1127
aa(lp137
F0.5519745796249962
aF-0.2622531399488937
aI1407
aa(lp138
F100.0851065152157
aF1.0871845700860905
aI49993
aa(lp139
F2.6936111270498824
aF-0.006706531849056039
aI2287
aa(lp140
F0.31856418515397517
aF-0.2543184180309136
aI491
aa(lp141
F1.6076089400514828
aF0.1392056282190064
aI2208
aa(lp142
F100.0829714399967
aF1.8663496753213553
aI48302
aa(lp143
F99.69343929616608
aF0.2796878916165676
aI50000
aa(lp144
F0.5591463943700316
aF0.05703758442330157
aI1062
aa(lp145
F6.6815046445008734
aF-0.566245864349208
aI8223
aa(lp146
F5.98736192744675
aF0.1799153606023357
aI50000
aa(lp147
F5.769802107007574
aF-0.22330422660072916
aI5595
aa(lp148
F2.131187196425835
aF0.15199860496348339
aI1711
aa(lp149
F94.70837638728536
aF1.5068910124140467
aI50000
aa(lp150
F1.3811090046949552
aF-0.0307871982573654
aI4498
aa(lp151
F3.806768287730514
aF-0.16409368924880238
aI4307
aa(lp152
F8.54331636697588
aF-1.0946158521070133
aI11633
aa(lp153
F4.825223666808446
aF0.02712405303511562
aI7866
aa(lp154
F3.9109378282129277
aF0.10864401273068527
aI8525
aa(lp155
F6.053958661764489
aF-0.24911760297450686
aI7363
aa(lp156
F0.1347189542047586
aF-0.009932525756124768
aI262
aa(lp157
F5.373970703775879
aF-0.7780472867225443
aI7853
aa(lp158
F0.7758629929841766
aF-0.13070058534227885
aI2541
aa(lp159
F3.7568211192787206
aF0.030071636164386576
aI5619
aa(lp160
F2.1583089767176014
aF0.13387665766775753
aI2112
aa(lp161
F2.6755849277311827
aF0.008520355290351436
aI11088
aa(lp162
F57.831321513014515
aF0.2096750782736386
aI50000
aa(lp163
F4.820702682250984
aF0.23770244551226496
aI7493
aa(lp164
F4.7264300923715865
aF-0.5078054032773432
aI15152
aa(lp165
F3.286128079255454
aF0.07791592022409508
aI3020
aa(lp166
F80.10441817877616
aF-1.0445714282359753
aI50000
aa(lp167
F7.637986275717231
aF-0.4060292669559079
aI10017
aa(lp168
F4.149472806164136
aF-0.47829672519241745
aI6284
aa(lp169
F1.2183239794968943
aF-0.003390211510529432
aI1109
aa(lp170
F100.08237172992983
aF0.6472215035822931
aI47202
aa(lp171
F3.8038698594108262
aF0.07509046084783283
aI8424
aa(lp172
F100.08959273869594
aF-1.555132783017834
aI49938
aa(lp173
F100.08427372061739
aF0.5244851244882257
aI48545
aa(lp174
F4.01601685361372
aF-0.41660316075547577
aI7540
aa(lp175
F1.7528038922698745
aF0.058417321993703815
aI50000
aa(lp176
F7.2656447213388775
aF-0.11015253639678366
aI50000
aa(lp177
F100.07866638632555
aF-2.2736578241180014
aI47319
aa(lp178
F2.8123725415544145
aF-0.07842921596009017
aI4716
aa(lp179
F3.99641874379034
aF0.23506401271752606
aI7585
aa(lp180
F51.664368349516685
aF0.15209047302588422
aI50000
aa(lp181
F3.0954817183075183
aF-0.7375044145289544
aI4424
aa(lp182
F1.0499463858492906
aF-0.0020016006303697547
aI871
aa(lp183
F5.649855275660092
aF-0.42890850036525957
aI6878
aa(lp184
F4.226927792660634
aF-0.5016682591673071
aI4204
aa(lp185
F7.1517643182024475
aF-0.12642034245484915
aI19555
aa(lp186
F8.371064033057534
aF-0.42679574850586083
aI20343
aa(lp187
F3.4971784130483092
aF-0.34197161124516534
aI25208
aa(lp188
F94.31203925805163
aF-0.5999652780193218
aI50000
aa(lp189
F1.7860996590610048
aF-0.1736593297922343
aI12995
aa(lp190
F2.2571125711486273
aF-0.2428526638246019
aI4143
aa(lp191
F5.671060508831387
aF-0.08441993680260959
aI5838
aa(lp192
F6.22329640102733
aF-0.13995233050658262
aI50000
aa(lp193
F19.53971448286371
aF-0.5269317748354375
aI50000
aa(lp194
F5.985049947414919
aF-0.46559130277747307
aI8827
aa(lp195
F4.034696937134507
aF-0.074595352617211
aI5445
aa(lp196
F-0.04763945560149132
aF0.06321407707143592
aI50000
aa(lp197
F0.7708073975575103
aF0.11308787351098833
aI847
aa(lp198
F7.547620957631698
aF0.21809464342530963
aI14352
aa(lp199
F9.046871728500896
aF0.26170660401629287
aI10989
aa(lp200
F6.146005441691179
aF-0.45497214346291387
aI50000
aa(lp201
F0.6582910419563872
aF0.2639676441770216
aI1099
aa(lp202
F100.08683281826357
aF-0.8146831848284697
aI46118
aa(lp203
F3.766676153006105
aF-0.11876527905285128
aI3137
aa(lp204
F1.5306439002007648
aF-0.30059201039063893
aI13580
aa(lp205
F0.18665526455539183
aF0.25486645424795884
aI333
aa(lp206
F1.5490703543398556
aF-0.16446780293986374
aI50000
aa(lp207
F3.6324086723674354
aF-0.028176242566375423
aI4278
aa(lp208
F4.08796840490633
aF-0.9470106927273727
aI17142
aa(lp209
F-0.34805796756331586
aF0.5902418183917648
aI16365
aa(lp210
F8.001506155966759
aF-0.5731216080084606
aI15305
aa(lp211
F4.355798162370685
aF-0.39317109000375033
aI9800
aa(lp212
F7.808793547578102
aF-0.5061788580450316
aI12653
aa(lp213
F2.467143635508096
aF-0.023338823039190798
aI50000
aa(lp214
F3.6185970267633754
aF-0.4578744221213809
aI6913
aa(lp215
F77.39968728880665
aF-1.5118527867474159
aI50000
aa(lp216
F3.07534710552873
aF-0.31277575342368497
aI4528
aa(lp217
F3.603282008193092
aF-0.43601968734465024
aI9432
aa(lp218
F2.2696522189380897
aF-0.02047991670659457
aI3300
aa(lp219
F70.66717819021724
aF-0.015919183984693497
aI50000
aa(lp220
F0.4518114778118722
aF0.20725921862226204
aI338
aa(lp221
F2.220551647628596
aF-0.21283820261269462
aI4043
aa(lp222
F4.350047298058803
aF0.33019107343731957
aI50000
aa(lp223
F92.17965805659972
aF-3.1694510922453585
aI50000
aa(lp224
F4.013909211072211
aF0.20930081857814267
aI4646
aa(lp225
F100.08566045333113
aF-0.19430615228917172
aI47281
aa(lp226
F0.6526415175431364
aF0.20463557745235786
aI1440
aa(lp227
F8.852368118825556
aF0.08258002782672125
aI24189
aa(lp228
F80.27059157320895
aF-2.4887814509297552
aI50000
aa(lp229
F40.04822746101153
aF-0.5029736928940711
aI50000
aa(lp230
F46.81992974746975
aF-0.5781904714341951
aI50000
aa(lp231
F1.6713725914347246
aF-0.08800158136488914
aI1589
aa(lp232
F60.761587819822736
aF-1.3781547631935571
aI50000
aa(lp233
F5.707404723347604
aF-0.14134411836567942
aI4952
aa(lp234
F0.901120300610028
aF-0.1997355084443918
aI2466
aa(lp235
F72.77244542059385
aF-1.9895000536657725
aI50000
aa(lp236
F1.0316840432353915
aF-0.4562712611802404
aI1268
aa(lp237
F3.616604121372473
aF0.01673802598116792
aI10006
aa(lp238
F0.654746639044229
aF0.16586497646837284
aI1423
aa(lp239
F91.2603397481611
aF-0.5324766302675917
aI50000
aa(lp240
F6.477795674541399
aF0.19590931408862808
aI14014
aa(lp241
F7.827121129975326
aF-0.18748388577693773
aI17036
aa(lp242
F0.561021430788402
aF-0.2065366300251247
aI2027
aa(lp243
F2.116953959543772
aF0.023134478599532226
aI2459
aa(lp244
F9.58315309419352
aF-0.28051094182494485
aI50000
aa(lp245
F1.338671520952871
aF0.21741968306819293
aI2420
aa(lp246
F95.67931750454265
aF0.4804323607800383
aI50000
aa(lp247
F0.03439697774796799
aF-0.007790492766799493
aI50000
aa(lp248
F2.123998705912126
aF0.10863597920815177
aI1897
aa(lp249
F4.062500767745724
aF-0.09466225172478412
aI5573
aa(lp250
F79.22289528385123
aF-0.7679845769765857
aI50000
aa(lp251
F2.740076526184849
aF-0.13132741797892056
aI4482
aa(lp252
F5.549263256227353
aF-0.7043914288027177
aI5369
aa(lp253
F0.08844780464962577
aF-0.05397691437967586
aI50000
aa(lp254
F6.1293863770159955
aF-0.2760154638733343
aI8460
aa(lp255
F1.5761771724579552
aF-0.134353371871625
aI1598
aa(lp256
F96.62503667310871
aF-0.12102244006516912
aI50000
aa(lp257
F3.7247394968505825
aF-0.10000012521686871
aI8428
aa(lp258
F3.5039752750760926
aF-0.3742910619643367
aI5203
aa(lp259
F7.1564986090142035
aF-0.3878391637034221
aI17547
aa(lp260
F1.2181989658290062
aF-0.03431325164654322
aI1747
aa(lp261
F1.6633115905296436
aF-0.015272221776665304
aI2099
aa(lp262
F8.729942321106394
aF-0.3846041903297327
aI30807
aa(lp263
F6.067324658419157
aF0.0064278164070260164
aI6573
aa(lp264
F83.27293006496842
aF-0.795164432930967
aI50000
aa(lp265
F2.1102106092134068
aF0.09207240189926241
aI3536
aa(lp266
F7.337644139682368
aF0.30788270447443367
aI15575
aa(lp267
F0.4138073404722799
aF0.05767054742941658
aI766
aa(lp268
F3.247539458284894
aF0.046517646839793536
aI3167
aa(lp269
F100.08113283675341
aF0.08984470962551777
aI47746
aa(lp270
F7.050801931946986
aF0.09288107491955039
aI7112
aa(lp271
F7.173181507802093
aF-1.0471501362208822
aI9641
aa(lp272
F100.08788966539656
aF2.8429117419551324
aI47267
aa(lp273
F100.07695026942481
aF0.7206067933377016
aI47460
aa(lp274
F100.08285410832968
aF-2.3951404392283386
aI48737
aa(lp275
F3.7068377313894896
aF-0.4842817382429394
aI5101
aa(lp276
F95.8827525704139
aF-0.29948099319414795
aI50000
aa(lp277
F8.086991245357737
aF-0.8554566608350342
aI18618
aa(lp278
F2.29252065027094
aF0.2159286807135768
aI2408
aa(lp279
F6.659655888736184
aF0.14973528002602754
aI6153
aa(lp280
F0.4728711382922491
aF-0.21812130360351567
aI532
aa(lp281
F2.1178438959818644
aF-0.7677242376442736
aI2780
aa(lp282
F0.8248140597157332
aF0.20608638860628808
aI3370
aa(lp283
F3.75714810333828
aF0.008243970944319539
aI4354
aa(lp284
F1.2089458119382666
aF0.05398602097522966
aI1019
aa(lp285
F2.3564950699082625
aF-0.24018318274040806
aI50000
aa(lp286
F7.952679900015376
aF-0.23048407586533734
aI10452
aa(lp287
F7.924792651774275
aF-1.0346039410817849
aI32675
aa(lp288
F3.471749317072124
aF-0.28531290563072353
aI4958
aa(lp289
F100.09030319941778
aF0.39347109605616176
aI45845
aa(lp290
F67.19852060514513
aF0.20893385008802615
aI50000
aa(lp291
F1.0213810157309238
aF0.018495078786729513
aI1888
aa(lp292
F5.778977991727881
aF-0.26167710682520967
aI6266
aa(lp293
F4.6874372638026855
aF-0.4574893529886205
aI9116
aa(lp294
F7.830250730138219
aF-0.7295096662472413
aI11996
aa(lp295
F0.3216883594367761
aF-0.16618613647582797
aI316
aa(lp296
F2.1083251361245416
aF0.06311202903201273
aI2897
aa(lp297
F7.993050819813765
aF-0.6391914244328483
aI8732
aa(lp298
F98.68475122756416
aF0.6782597599057193
aI50000
aa(lp299
F1.1228151415411909
aF-0.10663680403228352
aI1415
aa(lp300
F7.884807499907251
aF-0.6421924448508902
aI8080
aa(lp301
F2.957641269834305
aF-0.6291183978450503
aI8289
aa(lp302
F3.9915791402150753
aF0.09122401292460225
aI6939
aa(lp303
F4.074534242986083
aF-0.8540518175574732
aI4327
aa(lp304
F8.760737446003308
aF-0.6803569507072759
aI16159
aa(lp305
F2.7488689385594633
aF0.20046870782352003
aI2470
aa(lp306
F1.4147088050386167
aF0.13510926635355897
aI1051
aa(lp307
F3.9798230985941356
aF-0.44683696725899863
aI6292
aa(lp308
F6.8741662091861
aF-0.47348370643681625
aI14078
aa(lp309
F2.763075923072081
aF-0.15377131060044652
aI3140
aa(lp310
F-0.00881913421243197
aF-0.05064786582417441
aI834
aa(lp311
F35.140185032469525
aF0.29123746513524384
aI50000
aa(lp312
F7.860215960023136
aF-0.1343535134593341
aI9884
aa(lp313
F4.088698510427089
aF-0.27930359894134377
aI7841
aa(lp314
F5.711268072797842
aF-0.3966588211934891
aI19779
aa(lp315
F6.610951358875806
aF-0.9474094052821888
aI24669
aa(lp316
F5.337700140428737
aF0.1808433218705846
aI5063
aa(lp317
F100.09653833498326
aF0.005634630233503234
aI45242
aa(lp318
F100.0861518532372
aF0.9336551731790323
aI45606
aa(lp319
F3.529720215970201
aF0.13890590644325165
aI33884
aa(lp320
F0.8584981575141472
aF0.19502895726763472
aI1132
aa(lp321
F61.782747023282454
aF-1.5379984141119916
aI50000
aa(lp322
F4.557671310587472
aF-0.19514556902690194
aI4596
aa(lp323
F2.2720815718564187
aF-0.10956534699010408
aI2840
aa(lp324
F8.49715193771781
aF-0.2824090723996964
aI15676
aa(lp325
F8.032067098868472
aF-0.44465382016002364
aI50000
aa(lp326
F3.827439165506116
aF-0.28451797772162724
aI3459
aa(lp327
F0.9208746051815463
aF-0.35766495310486485
aI1654
aa(lp328
F2.269189267952485
aF-0.08591884444261112
aI3265
aa(lp329
F6.735425731552006
aF-0.5724126656672243
aI18722
aa(lp330
F7.851023876179577
aF-0.6843273816197355
aI10540
aa(lp331
F5.5760966712564795
aF0.040087590358124606
aI6527
aa(lp332
F7.58259439978869
aF0.38968444647002276
aI31331
aa(lp333
F100.08819156622046
aF-1.9872995929579464
aI47940
aa(lp334
F6.425682309959466
aF-0.8053250762891092
aI11874
aa(lp335
F8.997157393171287
aF-0.5359705286451865
aI11962
aa(lp336
F0.9808481251486959
aF0.020938069840180786
aI1827
aa(lp337
F0.02850886152556944
aF-0.015380634386589943
aI50000
aa(lp338
F5.226923216169309
aF0.059744699527963706
aI13012
aa(lp339
F0.8483621764613719
aF-0.06870500061402009
aI889
aa(lp340
F100.08840870832441
aF2.7840176812192206
aI46077
aa(lp341
F1.7909197072821892
aF-0.19606466791558116
aI6705
aa(lp342
F7.901655170420168
aF-0.9512295547895572
aI32079
aa(lp343
F1.515733445838407
aF0.39070584471818526
aI2204
aa(lp344
F3.6387906235868654
aF0.2761097237426111
aI8864
aa(lp345
F100.07673557411661
aF0.035495730896676264
aI49809
aa(lp346
F5.227308443889096
aF0.24799845360346046
aI7162
aa(lp347
F7.815105826667425
aF-0.7061777336243905
aI50000
aa(lp348
F1.183122375078852
aF0.4572190458813696
aI1899
aa(lp349
F5.245190383368492
aF-0.8771246217068602
aI5728
aa(lp350
F4.3992112629101685
aF-0.19568100584101816
aI50000
aa(lp351
F4.21885070462206
aF0.40782018897535843
aI5014
aa(lp352
F8.01329239692247
aF-0.3391729319472093
aI9705
aa(lp353
F3.980424794152625
aF0.3386253431913001
aI7638
aa(lp354
F1.7694408250498048
aF0.1393248788964168
aI4199
aa(lp355
F0.37482851131400685
aF-0.17379259896805643
aI411
aa(lp356
F7.804948644723513
aF-0.6974248574759571
aI12029
aa(lp357
F0.520112208570434
aF-0.11801134608761868
aI738
aa(lp358
F3.8160691503007733
aF-0.4429901002688649
aI5391
aa(lp359
F1.190435119438722
aF0.08700347673103594
aI3100
aa(lp360
F7.939779382065066
aF-0.6610364310607693
aI21614
aa(lp361
F100.08610945550309
aF-0.22566111273974807
aI49783
aa(lp362
F3.006343686237014
aF-0.298946310743904
aI4632
aa(lp363
F0.4504632195877843
aF0.003434861213812905
aI554
aa(lp364
F6.359579681205981
aF-0.0775982853966086
aI7859
aa(lp365
F0.15562826847356329
aF0.03656064870188422
aI50000
aa(lp366
F6.920618704896794
aF-0.18011562894042038
aI8584
aa(lp367
F100.07882416330138
aF0.2920799508797869
aI49293
aa(lp368
F100.08600743167976
aF0.07152972318714003
aI47747
aa(lp369
F6.671245343482379
aF-0.9451266180226485
aI6517
aa(lp370
F0.21859265115802795
aF-0.14039216274903435
aI364
aa(lp371
F1.6500073758170237
aF0.05340518163454355
aI17124
aa(lp372
F1.6777519874911382
aF-0.13711892460197395
aI2084
aa(lp373
F93.06291742433878
aF-1.9896823938549502
aI50000
aa(lp374
F100.08595720995518
aF-1.5986843609173371
aI45091
aa(lp375
F0.25003574144110824
aF-0.14824913713028637
aI695
aa(lp376
F1.8776949060590185
aF-0.11230517729304193
aI2767
aa(lp377
F0.3019538197897866
aF0.03420362066091472
aI367
aa(lp378
F1.7022760630075342
aF0.40508387065059254
aI1879
aa(lp379
F100.08116537640122
aF-1.242622867599055
aI49504
aa(lp380
F2.985558510015134
aF-0.46360726020277365
aI6782
aa(lp381
F2.3271727121800194
aF-0.4688845842128628
aI1966
aa(lp382
F7.492218869681055
aF0.05273258851363477
aI12847
aa(lp383
F100.09195674957273
aF-1.429650396835059
aI47480
aa(lp384
F0.45651500671734296
aF-0.11036304941409227
aI527
aa(lp385
F0.034667235249824895
aF0.05595741406709047
aI50000
aa(lp386
F3.573066222116295
aF-0.21641349929028447
aI19103
aa(lp387
F0.13624398981554064
aF-0.13775158793790002
aI218
aa(lp388
F2.185182907133219
aF-0.2962190890549369
aI2553
aa(lp389
F1.25630980698972
aF-0.008848796267070861
aI2156
aa(lp390
F-0.014398475726369252
aF-0.04033443143888904
aI50000
aa(lp391
F8.084079294880768
aF-0.3918097158980236
aI8294
aa(lp392
F88.16231091603618
aF-2.9865109651224997
aI50000
aa(lp393
F6.7512237537945445
aF-0.6202081888105818
aI11717
aa(lp394
F2.5419133485678422
aF-0.0636089951348705
aI5813
aa(lp395
F2.692792086538606
aF0.0538079217032817
aI3564
aa(lp396
F6.113574259174723
aF-0.07991207432371106
aI18264
aa(lp397
F7.573523213712017
aF-0.8297798054584726
aI9320
aa(lp398
F0.054575450386888574
aF-0.04787107522648871
aI1157
aa(lp399
F7.771257192825214
aF0.13153072051412687
aI11644
aa(lp400
F0.9922916405127848
aF0.11270016098958871
aI840
aa(lp401
F5.029792196218145
aF0.3085896474923794
aI50000
aa(lp402
F0.7094780828988032
aF0.30955664457324594
aI6130
aa(lp403
F0.4794320553879179
aF-0.10669485355796794
aI47666
aa(lp404
F0.11829247267643549
aF-0.13724635653925535
aI126
aa(lp405
F1.821994915138077
aF0.12038335907591735
aI2254
aa(lp406
F0.8876180407349477
aF-0.14376693540847865
aI793
aa(lp407
F100.08880094552123
aF-1.3034077769991361
aI47620
aa(lp408
F8.357422575204378
aF-0.42112727974229697
aI10158
aa(lp409
F100.08247298369491
aF-1.038281898588481
aI49338
aa(lp410
F86.93693963400172
aF-0.7572813903803822
aI50000
aa(lp411
F2.937592881596254
aF-0.3059594772259788
aI50000
aa(lp412
F2.175876572182388
aF0.08543487364646128
aI3075
aa(lp413
F100.08934336649935
aF-0.8550821235876608
aI48512
aa(lp414
F3.7749113724223546
aF-0.2433512410973754
aI6410
aa(lp415
F99.13322116432397
aF-1.4271484743532932
aI50000
aa(lp416
F7.942723356178669
aF-0.25763918541777675
aI36784
aa(lp417
F8.987300832150462
aF-0.5642579707681483
aI11196
aa(lp418
F67.57414381640422
aF-0.6515051597259819
aI50000
aa(lp419
F2.5969141213596885
aF0.16357055552532163
aI7706
aa(lp420
F4.880467705370785
aF0.1270095798605986
aI8431
aa(lp421
F5.39541142156723
aF0.18096584746032462
aI6675
aa(lp422
F3.468144725897504
aF0.2107109787037322
aI5301
aa(lp423
F5.976920906860841
aF0.0550561799316198
aI50000
aa(lp424
F85.12009473990472
aF-0.3976193728998974
aI50000
aa(lp425
F7.832197443406593
aF0.33381408106106486
aI50000
aa(lp426
F92.13648524618361
aF-1.7036560852471798
aI50000
aa(lp427
F100.08530358163596
aF-2.190986346936322
aI49080
aa(lp428
F6.491440502830322
aF-0.8620280085811604
aI30826
aa(lp429
F2.3181983599235596
aF-0.25674680242361786
aI2230
aa(lp430
F1.8207988546191691
aF0.09396293696455413
aI3142
aa(lp431
F7.320902683755646
aF-0.5064409505551565
aI22744
aa(lp432
F73.14741106600268
aF-0.6808743954006387
aI50000
aa(lp433
F0.10572067096082226
aF-0.07483819863730351
aI13896
aa(lp434
F8.017764379353698
aF-0.6273575778667886
aI12680
aa(lp435
F1.0382768336593908
aF-0.07069661380013
aI913
aa(lp436
F1.4932238865109502
aF-0.17890868784262864
aI2757
aa(lp437
F9.014278932499018
aF0.1110357020821515
aI19033
aa(lp438
F100.07883275519727
aF-0.3593877277830735
aI46376
aa(lp439
F8.237434879931266
aF-0.8839706414617571
aI14144
aa(lp440
F100.07877011480484
aF-0.7200042132704699
aI49194
aa(lp441
F99.73109491094546
aF-0.8044514658730944
aI50000
aa(lp442
F100.10120218895639
aF2.650005108076264
aI45571
aa(lp443
F5.4341084444671415
aF0.047704423451153916
aI50000
aa(lp444
F3.1643837055377326
aF-0.20561915821479188
aI3086
aa(lp445
F2.2465343061738086
aF-0.013476322726608335
aI2117
aa(lp446
F6.221475244972899
aF-0.3010823053916821
aI37177
aa(lp447
F3.033756346398161
aF0.1469966523902794
aI6832
aa(lp448
F100.08544774415896
aF-1.1808216607763424
aI46501
aa(lp449
F17.854263133118426
aF-0.5643664792919458
aI50000
aa(lp450
F12.364800168826594
aF0.12424574488734155
aI50000
aa(lp451
F2.7632104372474573
aF0.026191737455454684
aI8569
aa(lp452
F8.059143290016067
aF-0.35945428798829887
aI12560
aa(lp453
F0.46784345241354003
aF-0.10952140915223016
aI570
aa(lp454
F9.014391742496308
aF-0.8150550160457242
aI12392
aa(lp455
F2.914573866341804
aF0.006365161088172688
aI6781
aa(lp456
F0.13145686185933167
aF0.07645148888556086
aI444
aa(lp457
F18.959047556904626
aF0.018551694450681232
aI50000
aa(lp458
F2.31022110005812
aF-0.11940734594713956
aI2893
aa(lp459
F4.009653570025464
aF-0.5914162161719396
aI5651
aa(lp460
F1.0309823903976485
aF0.002113745879736154
aI3589
aa(lp461
F0.27369616926025325
aF0.034448987012274654
aI50000
aa(lp462
F100.09323285826432
aF-0.9452946268567978
aI46087
aa(lp463
F5.302378068938096
aF0.3229876338565641
aI34648
aa(lp464
F67.13132585189479
aF-0.9241602430939325
aI50000
aa(lp465
F1.5309929288110207
aF0.06038311938822306
aI1949
aa(lp466
F7.971537738240446
aF0.027763371326433507
aI13060
aa(lp467
F6.766996473473925
aF0.0703409033902048
aI6655
aa(lp468
F3.256152803218073
aF-0.3418917763158268
aI3922
aa(lp469
F100.08330962245246
aF0.0857154522663064
aI46564
aa(lp470
F68.30514895812877
aF-0.38456391814576973
aI50000
aa(lp471
F1.2458702919739866
aF-0.16025141887084884
aI4013
aa(lp472
F7.290853655655358
aF-0.8646504027417229
aI10090
aa(lp473
F8.800903159108312
aF0.06421386381911244
aI12673
aa(lp474
F100.08102129621057
aF-1.7172392443693976
aI47361
aa(lp475
F8.624312030225907
aF-0.2907270004398605
aI50000
aa(lp476
F7.234999529066121
aF-0.08233818883994744
aI50000
aa(lp477
F7.3395715994287185
aF-0.24123096409156075
aI10974
aa(lp478
F8.036614480710893
aF-0.37609372353428905
aI7733
aa(lp479
F98.09186605575545
aF-1.0484949078288373
aI50000
aa(lp480
F4.770226905499861
aF-0.3396889889694594
aI5752
aa(lp481
F1.1734402610405876
aF0.011254036517668188
aI886
aa(lp482
F1.7262361609786767
aF-0.12386966919872104
aI1948
aa(lp483
F3.247132622108782
aF-0.22693047218603873
aI2742
aa(lp484
F2.3781496964926574
aF-0.18437157394228484
aI2881
aa(lp485
F1.7980067252807201
aF0.08919673337689027
aI3777
aa(lp486
F4.249034086021656
aF-0.9011338996643838
aI5856
aa(lp487
F4.251221560751574
aF0.19720895252876902
aI13367
aa(lp488
F8.02677984593657
aF-0.48923485720330756
aI12624
aa(lp489
F7.845210331284069
aF-0.8558940972719189
aI7775
aa(lp490
F4.002318976727631
aF-0.31511530818728734
aI21051
aa(lp491
F7.590236594950784
aF0.38302102807209115
aI7687
aa(lp492
F4.80709651680802
aF-0.5737501239119494
aI6289
aa(lp493
F98.91831333193666
aF-0.07118292407526215
aI50000
aa(lp494
F1.6334520611305305
aF-0.03343210820574123
aI1261
aa(lp495
F7.9290022142615975
aF-0.24293838093797154
aI11204
aa(lp496
F100.08520921121819
aF-0.847077748303098
aI49439
aa(lp497
F1.2158777062476425
aF0.14894481132967227
aI1990
aa(lp498
F5.095594234309161
aF-0.403038666448349
aI4601
aa(lp499
F2.493554643652275
aF-0.1751440188131394
aI3567
aa(lp500
F0.3998202177726192
aF0.01458983079680756
aI986
aa(lp501
F1.5257522657425755
aF-0.1138515442400354
aI2399
aa(lp502
F2.48773745055971
aF-0.2534934367665987
aI2348
aa(lp503
F0.11005702757205589
aF-0.0329428703341545
aI1208
aa(lp504
F2.775950043807378
aF-0.37922203305335467
aI5197
aa(lp505
F2.483302545973808
aF-0.20366110464129714
aI2718
aa(lp506
F3.9857758485869557
aF-0.5382074535451589
aI13529
aa(lp507
F3.1933202942474335
aF-0.14852479084156178
aI50000
aa(lp508
F0.7881793460740775
aF-0.12470553358021652
aI750
aa(lp509
F3.407512467999565
aF-0.24956955440468506
aI3183
aa(lp510
F5.913940248364094
aF-0.5552556216221415
aI50000
aa(lp511
F7.1318577075683445
aF-0.23285322004013653
aI9199
aa(lp512
F1.1198298395060948
aF-0.17964535839161244
aI1545
aa(lp513
F2.871968191181049
aF-0.7261295348618344
aI3743
aa(lp514
F0.018924120957770484
aF-0.22214090203352346
aI3432
aa(lp515
F0.627142695016147
aF0.15056788530714993
aI777
aa(lp516
F98.58788740442739
aF-3.0922383314464557
aI50000
aa(lp517
F1.2313116594137796
aF-0.12707001382531535
aI2151
aa(lp518
F1.6676784890877034
aF0.20873000511905448
aI3040
aa(lp519
F3.4519909954330683
aF-0.06867492507042541
aI50000
aa(lp520
F6.535933044145506
aF0.22320472214196568
aI30559
aa(lp521
F0.7584619062821797
aF-0.11269762511781091
aI50000
aa(lp522
F4.6441157811666445
aF-0.3976839660432998
aI12525
aa(lp523
F7.221178546782891
aF-0.03774567367364048
aI50000
aa(lp524
F3.7543813245146973
aF0.049509914425756425
aI4298
aa(lp525
F100.09058033412715
aF-0.9505414805477962
aI49322
aa(lp526
F93.45269567795377
aF-1.8886998742143417
aI50000
aa(lp527
F3.7352758763177243
aF-0.013514396681212956
aI5766
aa(lp528
F1.3312585470120613
aF0.046508318777340546
aI1139
aa(lp529
F87.8943529974416
aF0.31688721743293874
aI50000
aa(lp530
F5.327549678877698
aF-0.6701379782509433
aI50000
aa(lp531
F3.720489322583132
aF-0.3495624398670181
aI6801
aa(lp532
F100.08257502568136
aF-2.3258493345392566
aI48614
aa(lp533
F6.857254513518583
aF-0.42026026993967763
aI11507
aa(lp534
F4.966654914376146
aF0.3231776395476012
aI5413
aa(lp535
F0.9331420180423521
aF-0.31091606706057706
aI809
aa(lp536
F2.857774639341398
aF-0.25813201444032435
aI3396
aa(lp537
F86.17967344015338
aF-0.8986414392389513
aI50000
aa(lp538
F1.035353544148625
aF-0.2697932811729204
aI1147
aa(lp539
F7.507226099670746
aF-0.29765443617796833
aI11269
aa(lp540
F2.6074906723151954
aF-0.004502458435021044
aI3308
aa(lp541
F6.2162305045456
aF-0.07354590757702845
aI50000
aa(lp542
F3.2958749249786488
aF-0.22418779188640808
aI3930
aa(lp543
F3.5606146830271985
aF-0.17369154776401977
aI5388
aa(lp544
F6.984320445349753
aF0.06353996852139042
aI11137
aa(lp545
F0.08248443255341094
aF0.04103592792113678
aI444
aa(lp546
F8.698973758260248
aF-1.1298228303228697
aI17002
aa(lp547
F1.8178828319100466
aF-0.002705951053392781
aI1259
aa(lp548
F95.68115929312985
aF-2.0772557211082283
aI50000
aa(lp549
F100.08401894567928
aF0.5644492680161912
aI49585
aa(lp550
F93.75002088222739
aF1.2458055178610936
aI50000
aa(lp551
F0.023240646058761916
aF-0.02492374146472323
aI50000
aa(lp552
F0.07743140532252749
aF0.11195219706980793
aI50000
aa(lp553
F100.08452658912674
aF-0.47339873678587635
aI47175
aa(lp554
F5.720058527063411
aF-0.2164939152099376
aI6644
aa(lp555
F7.4114778163941715
aF-0.05644843004217797
aI50000
aa(lp556
F3.6566936608026754
aF-0.14555228363410833
aI50000
aa(lp557
F6.5447189415817135
aF-0.15599056557300842
aI7579
aa(lp558
F6.991983935931448
aF-0.22668904980956628
aI9665
aa(lp559
F3.268521794943799
aF0.2633045561141887
aI3921
aa(lp560
F4.309153636005081
aF-0.17667670281560982
aI6478
aa(lp561
F4.276627156388025
aF-0.12657898963091666
aI4131
aa(lp562
F1.2133903100243553
aF-0.012282890210015236
aI845
aa(lp563
F0.4238359014448656
aF0.04413643273588846
aI627
aa(lp564
F97.3398429215769
aF-1.0947520242231903
aI50000
aa(lp565
F0.14637169212415202
aF0.05162423690219291
aI1580
aa(lp566
F99.42399687631033
aF-2.6960901656052236
aI50000
aa(lp567
F1.8235928676752364
aF0.06001079456570947
aI2605
aa(lp568
F0.8280362853680766
aF-0.01886585745131538
aI6595
aa(lp569
F42.71946033343283
aF-1.5822546371599473
aI50000
aa(lp570
F71.81549956543128
aF-0.7793198086305565
aI50000
aa(lp571
F8.154586793501101
aF-0.5411962738051687
aI24347
aa(lp572
F3.8878574783134616
aF-0.5455462841701783
aI4146
aa(lp573
F8.01668244934517
aF0.129688963107689
aI12260
aa(lp574
F1.4758287915520525
aF-0.07038579294336979
aI2385
aa(lp575
F3.2934663551178347
aF-0.07730258041673442
aI4086
aa(lp576
F1.3265236200471753
aF-0.23358393764351865
aI1780
aa(lp577
F0.8214920692902863
aF-0.029206711619720212
aI630
aa(lp578
F8.203032427634211
aF-0.20758895851313677
aI50000
aa(lp579
F9.010208111451588
aF-0.47728725054205245
aI17111
aa(lp580
F100.08649863940865
aF-2.1395286164304195
aI47456
aa(lp581
F92.29973231101134
aF-3.6059160698838753
aI50000
aa(lp582
F7.629086464385371
aF-0.4020800447886504
aI17046
aa(lp583
F100.09386070944313
aF-0.8130419455670479
aI48841
aa(lp584
F3.2981461330853445
aF-0.3244387727654095
aI3368
aa(lp585
F4.896004436659307
aF-0.03542217617095898
aI6564
aa(lp586
F100.08033833287915
aF-0.6729219211625131
aI46387
aa(lp587
F8.990946244133962
aF-0.4707659571587064
aI10759
aa(lp588
F8.366736221095152
aF-0.9113762192704384
aI9626
aa(lp589
F2.082474965849679
aF-0.35856467887577986
aI2226
aa(lp590
F8.566618504066545
aF-0.5296028328453042
aI15497
aa(lp591
F6.94919711514541
aF-0.2262085886230708
aI8715
aa(lp592
F100.08741728511751
aF1.1479125747813272
aI46562
aa(lp593
F2.071914547827372
aF-0.11838400371077817
aI4603
aa(lp594
F3.7823141534517544
aF0.0056574563516993874
aI4741
aa(lp595
F5.782010675879152
aF0.1120074822807684
aI5047
aa(lp596
F6.206880058206649
aF-0.6326750489162771
aI7858
aa(lp597
F2.3219851081798013
aF-0.005032433724344119
aI2703
aa(lp598
F8.440977350693947
aF0.040607222708657915
aI17894
aa(lp599
F4.251909880650074
aF0.3807940997024305
aI4815
aa(lp600
F90.00688592909573
aF-0.6964415922721267
aI50000
aa(lp601
F4.945870358114452
aF0.04466243934460842
aI7184
aa(lp602
F1.3445925825464904
aF-0.3894787687567125
aI5543
aa(lp603
F5.754225533722482
aF0.18189052157386223
aI4858
aa(lp604
F0.01593528307926604
aF0.08850582689973617
aI50000
aa(lp605
F2.68180712766417
aF-0.08760524450523366
aI3522
aa(lp606
F3.8148654847686965
aF0.45212439696711504
aI7341
aa(lp607
F23.87406929844814
aF-0.8484190877242093
aI50000
aa(lp608
F0.8174842722934914
aF0.19580267297425735
aI50000
aa(lp609
F0.7082079807778501
aF0.10556181844086983
aI761
aa(lp610
F2.586218298203865
aF0.10527922704778585
aI2374
aa(lp611
F3.6076659358677743
aF-0.5004822834808875
aI50000
aa(lp612
F2.074500614030056
aF0.26749548015214586
aI4002
aa(lp613
F3.996692279163967
aF0.09428856784647835
aI3630
aa(lp614
F0.9465839841767768
aF-0.44368521349905765
aI1231
aa(lp615
F2.338627466315784
aF-0.23516401407816498
aI50000
aa(lp616
F5.221690838266286
aF-0.11732257500332006
aI50000
aa(lp617
F0.379830532721094
aF0.18798429978382636
aI827
aa(lp618
F0.6201516018523054
aF0.0735257894270029
aI358
aa(lp619
F84.3077770174148
aF-1.373151708601569
aI50000
aa(lp620
F2.1355942111913624
aF0.03409924354057193
aI41896
aa(lp621
F100.10283887123617
aF-1.0432610251986267
aI49798
aa(lp622
F78.89607251762023
aF-0.22659412474855892
aI50000
aa(lp623
F7.959920346930339
aF-0.30513282568882755
aI12662
aa(lp624
F2.634224354611881
aF0.02852246192436542
aI50000
aa(lp625
F0.6604655037420396
aF-0.055114661300144314
aI1121
aa(lp626
F98.29817570688775
aF-0.8026171113444693
aI50000
aa(lp627
F100.0750026805357
aF-0.5116705241210577
aI48164
aa(lp628
F100.08756220789714
aF-2.0541507444732585
aI49039
aa(lp629
F3.1752726389967716
aF-0.3291439877515566
aI50000
aa(lp630
F0.07023020721720853
aF-0.02766639662308582
aI50000
aa(lp631
F6.931877187398701
aF-0.41847604962783
aI7168
aa(lp632
F1.4806073753622102
aF0.38006279124697484
aI4963
aa(lp633
F2.744831531837383
aF-0.12145947191800942
aI3458
aa(lp634
F4.720247231324692
aF0.24278202073318828
aI4465
aa(lp635
F2.488879005636807
aF-0.24900459500190736
aI50000
aa(lp636
F2.3598576297944702
aF0.11934705664427837
aI3417
aa(lp637
F0.19058490996192182
aF-0.10072938209509624
aI300
aa(lp638
F100.08673327444141
aF-2.8789900633129166
aI48427
aa(lp639
F1.174979239864446
aF0.3226453133631721
aI3247
aa(lp640
F0.10745819667420389
aF0.0414462613210155
aI50000
aa(lp641
F1.666212041405057
aF0.02401761388060801
aI2958
aa(lp642
F2.3633452838170523
aF-0.36630223711536686
aI3275
aa(lp643
F2.300841152203366
aF-0.10505995253905168
aI4701
aa(lp644
F100.08731950624318
aF-0.669840889822447
aI47831
aa(lp645
F93.74160276453244
aF0.22607013077507315
aI50000
aa(lp646
F1.6554504664287306
aF-0.2053405721608936
aI1768
aa(lp647
F90.55315822480343
aF0.7409116869749598
aI50000
aa(lp648
F4.917540181412543
aF-0.7064982071256053
aI12624
aa(lp649
F3.8774860773547153
aF0.009135312174838824
aI5987
aa(lp650
F5.552252698256423
aF0.04869975458710298
aI50000
aa(lp651
F2.3636084995356534
aF0.2480715413015261
aI1582
aa(lp652
F6.985250188376958
aF-0.10419657875252608
aI40845
aa(lp653
F2.185544925835147
aF-0.025571115371296874
aI2380
aa(lp654
F7.607720681124563
aF-0.14467456647288382
aI12825
aa(lp655
F1.459855405577088
aF-0.16664891644960533
aI1278
aa(lp656
F100.08962585601473
aF-0.6491604983531417
aI47738
aa(lp657
F3.034107766773738
aF0.14508153161688653
aI4530
aa(lp658
F100.08421144520706
aF-2.1216085587446414
aI47108
aa(lp659
F7.8646838480188
aF0.01335551737494827
aI14549
aa(lp660
F7.771313055385657
aF-0.09067150844999099
aI9884
aa(lp661
F3.879927368732609
aF-0.33426738255082494
aI8746
aa(lp662
F6.023265248473208
aF-0.1909455603840542
aI6714
aa(lp663
F7.590579333974987
aF-0.48634876833480756
aI15309
aa(lp664
F4.41716192685818
aF-0.38666896773459647
aI5159
aa(lp665
F1.9563951048087536
aF-0.3937054036555067
aI1952
aa(lp666
F100.08006607467394
aF-1.434261498398634
aI48638
aa(lp667
F1.3908984173873988
aF-0.05382453215682917
aI50000
aa(lp668
F1.5047869923295356
aF-0.15470695709195867
aI2563
aa(lp669
F96.05852259395635
aF-3.0255774695807345
aI50000
aa(lp670
F5.9676098332309335
aF-0.6867671511115578
aI12336
aa(lp671
F5.116961803278277
aF-0.4845533961999579
aI10470
aa(lp672
F4.417154157318615
aF0.47080269452925855
aI11237
aa(lp673
F67.41579382045892
aF-0.17961240542413723
aI50000
aa(lp674
F53.208293444248746
aF-0.7418612438776614
aI50000
aa(lp675
F1.541355684646823
aF0.026353281197929925
aI1920
aa(lp676
F6.856035770222204
aF-0.715878223275598
aI10592
aa(lp677
F5.100720818641676
aF-0.055559709792047225
aI9300
aa(lp678
F7.366327652468117
aF-0.11360014105021692
aI50000
aa(lp679
F4.86815064315915
aF0.011628882760663461
aI50000
aa(lp680
F5.358000422613737
aF-0.5196368475388107
aI5860
aa(lp681
F1.7067965504750735
aF-0.11302128162858945
aI1920
aa(lp682
F100.08473290529507
aF-0.5479498748506996
aI49507
aa(lp683
F8.361400928887022
aF-0.9876491126446285
aI11095
aa(lp684
F2.9726667594455303
aF-0.3167527072195016
aI3166
aa(lp685
F2.030580082253695
aF0.2751824419667132
aI2979
aa(lp686
F6.582184248948456
aF0.1069614598972019
aI7442
aa(lp687
F6.521254500819302
aF-0.8347502216841319
aI8635
aa(lp688
F8.03877140593973
aF-0.47189315221661393
aI14764
aa(lp689
F34.33194549281751
aF-0.9050701325713915
aI50000
aa(lp690
F6.590228510972038
aF-0.9235487695533277
aI6055
aa(lp691
F100.08655208109444
aF-0.08897178538534065
aI48547
aa(lp692
F3.8367703577500554
aF-0.01817537035245413
aI3350
aa(lp693
F0.6146757106648459
aF-0.0574040192597074
aI1026
aa(lp694
F78.78790216166176
aF-0.6056849192205823
aI50000
aa(lp695
F100.08617482169363
aF-1.1452877365174503
aI46023
aa(lp696
F1.1853583277622493
aF0.21641645723451483
aI31473
aa(lp697
F0.887158952521355
aF0.05114464583169204
aI1123
aa(lp698
F3.117390827824126
aF-0.21799485892879528
aI9064
aa(lp699
F0.15182145428029778
aF0.06703166095308247
aI65
aa(lp700
F1.1055412577499992
aF6.633299370914047e-07
aI50000
aa(lp701
F0.37782772726616065
aF-0.2427911338894755
aI1250
aa(lp702
F0.07292649530485557
aF-0.16484577422904803
aI178
aa(lp703
F0.739723897763579
aF-0.46873079694515907
aI963
aa(lp704
F100.07814442541991
aF-0.263693803193445
aI47838
aa(lp705
F47.20920774857902
aF-0.31331534967566144
aI50000
aa(lp706
F3.5332102160291767
aF-0.18620755368269445
aI4504
aa(lp707
F3.7454524423564175
aF-0.07933476602943937
aI4465
aa(lp708
F2.322142229342412
aF-0.06202371136183926
aI2268
aa(lp709
F7.002958957125832
aF0.344711968886409
aI15063
aa(lp710
F5.340554462273589
aF-0.222680156860643
aI5303
aa(lp711
F4.299796385629172
aF-0.3174682876568529
aI8549
aa(lp712
F0.07595951705149086
aF-0.1905664426099009
aI167
aa(lp713
F3.1822419848362222
aF-0.489869966654953
aI50000
aa(lp714
F7.802889585369093
aF0.1856522464406017
aI50000
aa(lp715
F3.1922028028389007
aF-0.47192870818353516
aI3583
aa(lp716
F1.7844126263885003
aF0.044284842162983694
aI2000
aa(lp717
F1.9162803079874873
aF-0.01002580826564618
aI2994
aa(lp718
F100.08646316474311
aF-1.7523596599625288
aI44588
aa(lp719
F3.1257250435036825
aF-0.18848367327808474
aI3821
aa(lp720
F1.3583304566399466
aF-0.3516198434687581
aI2221
aa(lp721
F0.7927300426616188
aF-0.21408063746619746
aI50000
aa(lp722
F0.2125107768474904
aF0.03509219756678628
aI50000
aa(lp723
F1.0382799185133027
aF0.13614654794868689
aI1731
aa(lp724
F6.115276347955312
aF-0.2210845424128271
aI50000
aa(lp725
F6.178207283841901
aF-0.4956737875183717
aI8136
aa(lp726
F3.6057637883019096
aF-0.08988608199803227
aI50000
aa(lp727
F2.377652651833873
aF-0.04326941968182689
aI4068
aa(lp728
F1.5289676744916139
aF0.28905813281087595
aI2010
aa(lp729
F100.08410448221301
aF1.045235638671531
aI49445
aa(lp730
F2.0589378083765046
aF-0.3162778422198068
aI3234
aa(lp731
F2.5100155659715946
aF-0.5057376341040452
aI50000
aa(lp732
F100.08223823315141
aF-3.466514696448393
aI48235
aa(lp733
F95.87731806914854
aF-3.2312049698608094
aI50000
aa(lp734
F1.8167802897786098
aF-0.2284851750432613
aI2184
aa(lp735
F1.565113805614466
aF0.12093497920889965
aI4677
aa(lp736
F100.07976797244474
aF0.29360789999456693
aI46098
aa(lp737
F4.2659188357966995
aF0.1087369987146568
aI5507
aa(lp738
F98.06926826026775
aF-1.652434768426818
aI50000
aa(lp739
F8.003972229943637
aF-0.3188608776019038
aI18400
aa(lp740
F41.85013619602523
aF-1.1848817864816545
aI50000
aa(lp741
F0.12041052623172813
aF0.09510572503311372
aI1012
aa(lp742
F0.5765215157221034
aF-0.16600615877119715
aI2740
aa(lp743
F0.0040013619290117835
aF0.0710682327741645
aI13597
aa(lp744
F2.782690856211791
aF-0.46321645313836984
aI2389
aa(lp745
F1.39066537992456
aF-0.09559832415610027
aI5051
aa(lp746
F1.8787044392496262
aF-0.14296632943954105
aI50000
aa(lp747
F8.993550304378074
aF-1.0172035752680413
aI17762
aa(lp748
F3.4787473455821227
aF-0.33577393649724047
aI5789
aa(lp749
F80.52629724649132
aF-1.1652467314604698
aI50000
aa(lp750
F6.941282431891548
aF-0.25136219036418533
aI50000
aa(lp751
F3.07213201273578
aF-0.06683318033215778
aI50000
aa(lp752
F96.78355969865918
aF-2.2361529178100854
aI50000
aa(lp753
F1.398599028740415
aF0.27786005591192564
aI7681
aa(lp754
F7.39773021972638
aF-0.05071907135970149
aI14502
aa(lp755
F3.204295213284669
aF-0.6974917262084368
aI16417
aa(lp756
F7.243829318107895
aF0.6314136000665951
aI50000
aa(lp757
F4.920869959825781
aF-0.4862777352524966
aI5609
aa(lp758
F0.6910317067911297
aF-0.3929195042319545
aI1554
aa(lp759
F0.4825315965138832
aF0.09606716646907183
aI1482
aa(lp760
F6.743024439057584
aF-1.1183843229492607
aI12772
aa(lp761
F4.035868328131149
aF-0.44727048703962813
aI5958
aa(lp762
F100.07983615571295
aF-1.3890553695786028
aI48846
aa(lp763
F48.744013422018206
aF-0.9660360519979325
aI50000
aa(lp764
F2.9119866110630226
aF0.0880281360287789
aI3082
aa(lp765
F2.9135968384994446
aF-0.13651560469164783
aI50000
aa(lp766
F5.251138544853611
aF-0.09183605685372181
aI10901
aa(lp767
F3.6489283932549004
aF0.012245421975940866
aI2977
aa(lp768
F0.8969808866420022
aF0.06202526595976042
aI2223
aa(lp769
F64.98764498848945
aF-1.1640163413049178
aI50000
aa(lp770
F1.3773549843023558
aF0.06293017623169148
aI50000
aa(lp771
F-0.06161717719901925
aF-0.3060376740770397
aI581
aa(lp772
F0.8367772351333425
aF0.03554285700757209
aI1510
aa(lp773
F1.019889647269345
aF0.11445947345747454
aI6652
aa(lp774
F100.0830250365099
aF-0.5419467949040918
aI49129
aa(lp775
F3.874261793073166
aF-0.20495785846569917
aI6249
aa(lp776
F0.6406073217957018
aF0.11663537629663392
aI1198
aa(lp777
F1.0179102417730599
aF-0.11828773137219276
aI4422
aa(lp778
F3.9753439718893455
aF-0.4905710888556681
aI50000
aa(lp779
F0.45237239488618647
aF-0.15734251365632443
aI442
aa(lp780
F100.08567132114827
aF1.5370189763500977
aI48990
aa(lp781
F0.2783881870756226
aF0.11334729975235808
aI1477
aa(lp782
F100.07755452644253
aF-1.34731477924602
aI47834
aa(lp783
F0.726613909969834
aF0.12403620917488137
aI465
aa(lp784
F4.272595521931631
aF-0.333499092681386
aI4563
aa(lp785
F0.09555625208815083
aF0.11054733037161972
aI50000
aa(lp786
F1.232199912568026
aF-0.12140152293261428
aI1710
aa(lp787
F100.08221136684038
aF0.18414673583025454
aI48079
aa(lp788
F2.6011290664515054
aF0.07146720302535352
aI3736
aa(lp789
F0.9949252263177265
aF0.14684314203781454
aI1077
aa(lp790
F4.274163833369144
aF-0.0405848809547486
aI5945
aa(lp791
F100.08941287430915
aF-1.1530771270662261
aI46690
aa(lp792
F3.3957013232137356
aF-0.33652687957352223
aI4217
aa(lp793
F5.2095445166417
aF-0.07457794024020314
aI8488
aa(lp794
F3.7490509135911125
aF-0.0867130292865646
aI3849
aa(lp795
F0.8706338958341667
aF0.03416689869653306
aI6009
aa(lp796
F100.08819950875977
aF-1.836008336768522
aI47912
aa(lp797
F3.917932163735756
aF-0.33576602772311487
aI6825
aa(lp798
F4.838199623521314
aF-0.04819677624168931
aI7487
aa(lp799
F0.9337485423443457
aF-0.13978960988774974
aI50000
aa(lp800
F3.767275842562512
aF-0.14837426312835658
aI4531
aa(lp801
F100.0792792547761
aF1.170699534922048
aI48119
aa(lp802
F7.847335371348528
aF-0.32015907297065915
aI10212
aa(lp803
F2.252257574983232
aF-0.16501107729713135
aI1882
aa(lp804
F100.08455518551276
aF-0.725273692811161
aI46985
aa(lp805
F6.721358015576657
aF-0.4925298013004234
aI9158
aa(lp806
F8.189873059478627
aF-0.5469899639984895
aI11655
aa(lp807
F100.07673268033393
aF-4.114835410138279
aI48963
aa(lp808
F4.3990899609641705
aF-0.48702889800644134
aI4290
aa(lp809
F100.08759975647449
aF-2.0700507804560115
aI49502
aa(lp810
F0.22090705808298453
aF-0.0840252237525149
aI746
aa(lp811
F7.430681544913636
aF-0.42699365256531907
aI12756
aa(lp812
F100.08668169870674
aF-2.316782082326045
aI47023
aa(lp813
F5.2997658469851325
aF0.09297733494824813
aI7769
aa(lp814
F2.368467761472152
aF-0.2694841395242151
aI50000
aa(lp815
F1.4181651412448968
aF-0.06323754097099091
aI1198
aa(lp816
F8.081235457542004
aF0.12254194032713712
aI11906
aa(lp817
F100.08006035075685
aF-0.3032205353845874
aI47435
aa(lp818
F5.218719999012549
aF-0.2615633825656792
aI4186
aa(lp819
F4.231731334506272
aF-0.47520774123210224
aI4908
aa(lp820
F1.1218333310768853
aF0.08007975772966179
aI1528
aa(lp821
F7.572242389117196
aF-0.4571207467663606
aI50000
aa(lp822
F5.103018063783735
aF-0.5849534471930998
aI16348
aa(lp823
F4.908854284389205
aF-0.47469643924190574
aI5725
aa(lp824
F1.0481008424035954
aF0.09145285272417009
aI2298
aa(lp825
F7.751828514669582
aF-0.23948455423852005
aI8005
aa(lp826
F100.08163723091992
aF-0.8505517706892779
aI49010
aa(lp827
F1.2752193709351842
aF-0.09997089001655211
aI2441
aa(lp828
F7.812220200060085
aF-0.09684962157888881
aI50000
aa(lp829
F3.0947755662799317
aF-0.6647756836455953
aI7491
aa(lp830
F79.7143769163973
aF-1.4473810141585015
aI50000
aa(lp831
F0.7845383052413061
aF0.009270642188867487
aI922
aa(lp832
F2.9337435614107705
aF-0.3153512419421026
aI4065
aa(lp833
F1.1524354849301879
aF-0.1124301970404402
aI1720
aa(lp834
F0.0394632157947763
aF0.0030528462612288932
aI50000
aa(lp835
F0.13881304950409507
aF0.06123923875024093
aI65
aa(lp836
F96.13305137914253
aF-1.593195108087803
aI50000
aa(lp837
F1.8844882437214714
aF-0.12337109332500243
aI2807
aa(lp838
F2.1538379366724936
aF-0.10419011204459733
aI2650
aa(lp839
F0.12483764275254951
aF0.21810327327076307
aI4270
aa(lp840
F7.725540551862198
aF0.3421155224774566
aI30459
aa(lp841
F3.666508264918237
aF-0.4114694847240973
aI4706
aa(lp842
F7.001101897806522
aF-0.13303175579588036
aI50000
aa(lp843
F3.460574387020392
aF-0.328535233257244
aI6233
aa(lp844
F1.3143142925876103
aF0.0644545666025734
aI50000
aa(lp845
F1.9285922577242127
aF-0.20189560048437458
aI12166
aa(lp846
F87.52804169307912
aF-1.8620048731168484
aI50000
aa(lp847
F3.175773644779647
aF-0.32756115102615035
aI50000
aa(lp848
F2.801698630678162
aF-0.39152134660384647
aI3620
aa(lp849
F0.8932008013041586
aF0.08994784322473968
aI993
aa(lp850
F38.511073586944285
aF-0.30752895002987435
aI50000
aa(lp851
F5.29102953282699
aF-0.646854906334894
aI6027
aa(lp852
F3.8597808694982634
aF-0.06136542544372212
aI11544
aa(lp853
F5.859623463334152
aF-0.9124956432638844
aI13054
aa(lp854
F100.08758401379902
aF-1.4305781380021658
aI49804
aa(lp855
F100.08477886328517
aF-0.6876013429124465
aI47280
aa(lp856
F1.9857657446039256
aF-0.6589866136996543
aI5188
aa(lp857
F1.9640847852842553
aF-0.7479246881714361
aI2478
aa(lp858
F1.6706858056539018
aF-0.01936282336385525
aI3125
aa(lp859
F1.231064467851286
aF0.21773885036588503
aI1542
aa(lp860
F1.778373643021963
aF0.10961866292167552
aI2619
aa(lp861
F99.91787433007521
aF-0.8812549855437811
aI50000
aa(lp862
F3.5877477509534974
aF0.23605714051391496
aI4635
aa(lp863
F100.08336167185239
aF0.01603761774181019
aI47455
aa(lp864
F72.0654320022479
aF0.5481696328426039
aI50000
aa(lp865
F4.095239214659324
aF-0.3263463311683883
aI12470
aa(lp866
F2.976704382433887
aF-0.34607870577869604
aI3780
aa(lp867
F100.09322033902217
aF0.40180199333977995
aI48948
aa(lp868
F9.048621681533023
aF-0.8647324524293626
aI20281
aa(lp869
F100.10563834159072
aF0.30458334197004727
aI47354
aa(lp870
F100.07737032612874
aF1.878270659501061
aI48072
aa(lp871
F4.722539418680859
aF-0.23145729505371493
aI4986
aa(lp872
F2.121260899709052
aF0.04727754817483348
aI2320
aa(lp873
F6.894426830234451
aF-0.054937427507017425
aI8844
aa(lp874
F7.700980226144951
aF-0.35818860273536685
aI10124
aa(lp875
F1.1756927833019468
aF-0.22106309924361128
aI1256
aa(lp876
F0.6597047787639616
aF-0.06319978254433027
aI646
aa(lp877
F1.3440399819075686
aF-0.16767734743677973
aI1755
aa(lp878
F5.952755986002001
aF-0.135725899027404
aI6357
aa(lp879
F4.813203023670219
aF0.021973093681172846
aI7997
aa(lp880
F1.6659104630577486
aF-0.3626864808576636
aI17267
aa(lp881
F0.08949930803498997
aF0.17988427351312228
aI50000
aa(lp882
F4.488310782177961
aF-0.1561623051806074
aI6477
aa(lp883
F0.3326923522937628
aF0.07775607736034705
aI1947
aa(lp884
F8.520155922944106
aF-0.4683143875623871
aI10287
aa(lp885
F7.801183285146101
aF-0.6225855515410791
aI50000
aa(lp886
F7.8150067513725
aF0.0008392895216856096
aI20436
aa(lp887
F1.7982438345618286
aF-0.1594684436485175
aI4004
aa(lp888
F1.3246488988958325
aF-0.29530278317869885
aI1761
aa(lp889
F0.4903519501507786
aF0.09690578934984069
aI1006
aa(lp890
F5.575243728706042
aF-0.46858083964708025
aI16599
aa(lp891
F6.763231101139336
aF0.05109244877592388
aI7071
aa(lp892
F1.4425883372610189
aF0.005482852973191048
aI1845
aa(lp893
F0.8589744258715867
aF0.09968189749647355
aI957
aa(lp894
F6.803888165519876
aF0.1950514887876264
aI7691
aa(lp895
F100.08990003530398
aF-2.7027703544325923
aI48724
aa(lp896
F7.17586896881872
aF-0.1844311965010728
aI9309
aa(lp897
F6.150926073586657
aF-0.363587445662117
aI12831
aa(lp898
F6.403512267653343
aF-0.3413545252874211
aI14793
aa(lp899
F0.9351454454682373
aF0.006093836512188365
aI1122
aa(lp900
F100.09056747302623
aF0.14129228813099226
aI48890
aa(lp901
F3.1703629520398793
aF-0.6587864130005909
aI3845
aa(lp902
F1.9056968456701988
aF-0.3341009479754918
aI6266
aa(lp903
F0.8265971133655745
aF0.12200767453461098
aI764
aa(lp904
F79.63466735693251
aF-0.8649809536886373
aI50000
aa(lp905
F100.08824062867883
aF-0.8853562013968524
aI49228
aa(lp906
F2.4700636973083006
aF-0.2931428854609738
aI2717
aa(lp907
F9.115110822822245
aF-1.0807774724180381
aI17019
aa(lp908
F6.514522714859017
aF0.25065751849169643
aI7690
aa(lp909
F7.562576298348561
aF-0.36523059118527973
aI11057
aa(lp910
F4.747749760777557
aF0.04508537399566926
aI7340
aa(lp911
F100.09177873220558
aF-1.102236429753336
aI48481
aa(lp912
F100.08666288898445
aF-0.22141025357008254
aI46636
aa(lp913
F2.658764719080851
aF0.14548116966588948
aI4128
aa(lp914
F4.281020852957531
aF-0.5460832882178097
aI5198
aa(lp915
F100.09098490409528
aF-2.675109377174576
aI47114
aa(lp916
F58.82148079408003
aF-0.8340992532840199
aI50000
aa(lp917
F2.2023752518588697
aF-0.341617378605486
aI2204
aa(lp918
F-0.03495041139955816
aF0.1889372744792855
aI359
aa(lp919
F100.0972311086476
aF0.9863370425617294
aI48157
aa(lp920
F86.79756568663525
aF-1.0340338919378573
aI50000
aa(lp921
F3.523020100578797
aF-0.2839357942181407
aI7409
aa(lp922
F1.058218000941445
aF0.3499973693888288
aI1290
aa(lp923
F0.9551535182673387
aF-0.08572709898615462
aI1664
aa(lp924
F3.6599652458885967
aF-0.2163194368175331
aI50000
aa(lp925
F100.0801848514622
aF0.44237048404567164
aI48449
aa(lp926
F5.087695607458112
aF0.012728581329334692
aI5907
aa(lp927
F4.482562026665889
aF-0.5053555604958209
aI21333
aa(lp928
F6.093637123054063
aF-0.2978158544145961
aI16781
aa(lp929
F7.815761238980182
aF-0.10575037829955351
aI50000
aa(lp930
F-0.014380277129843761
aF0.01998117329429296
aI50000
aa(lp931
F100.08150991867234
aF-0.8863837481438751
aI47673
aa(lp932
F7.204583410030622
aF0.21402363148185083
aI50000
aa(lp933
F2.31003912159286
aF0.010249177977278373
aI2813
aa(lp934
F0.1042583105835961
aF0.15826730785380505
aI762
aa(lp935
F3.6161104209092874
aF-0.23840592184970336
aI9197
aa(lp936
F100.08218524540617
aF-0.9212063096089688
aI48048
aa(lp937
F1.6999632973017882
aF-0.14605845554536098
aI3382
aa(lp938
F0.7338950779613492
aF0.11333185339121397
aI1417
aa(lp939
F6.156114023527714
aF-0.8392571143334925
aI50000
aa(lp940
F2.964938782967447
aF-0.6412916725490189
aI3344
aa(lp941
F5.8698223296683665
aF0.5807825448656571
aI9059
aa(lp942
F66.07955257992242
aF-0.8824225131499585
aI50000
aa(lp943
F1.0825286230738422
aF-0.054012292720277875
aI1043
aa(lp944
F6.799133596988002
aF0.01259262919299282
aI47016
aa(lp945
F7.800050829736598
aF-0.7459464643700752
aI8683
aa(lp946
F6.376639926315716
aF-0.15508392051493852
aI12901
aa(lp947
F3.3774540885140527
aF0.20123843233556954
aI5609
aa(lp948
F1.8695989344171722
aF-0.15212103299326157
aI2217
aa(lp949
F1.1517374515111216
aF-0.0736680617340385
aI1023
aa(lp950
F8.95660382644182
aF0.002510808565749985
aI11161
aa(lp951
F7.5086421388063584
aF-0.5232758801315097
aI15551
aa(lp952
F2.0649852705473712
aF0.3066073787297828
aI6432
aa(lp953
F0.17504839223978821
aF-0.08189058185735285
aI236
aa(lp954
F4.707738609385792
aF0.0012906864029431856
aI5015
aa(lp955
F9.01069677338153
aF-0.8748596849275432
aI44811
aa(lp956
F2.1144930634200696
aF-0.013222729104695876
aI2831
aa(lp957
F1.5690610964444225
aF-0.07574384545309136
aI1363
aa(lp958
F2.463885236195327
aF-0.1747437582223637
aI2879
aa(lp959
F3.7673154300859917
aF-0.25959133565678255
aI45811
aa(lp960
F5.172031590664271
aF-0.23503549853261213
aI18642
aa(lp961
F1.6773849030521004
aF-0.2336881407751905
aI1826
aa(lp962
F2.748453831777461
aF-0.03821094340396519
aI9311
aa(lp963
F1.4036829309032766
aF-0.05655571265386302
aI1204
aa(lp964
F5.038961346916515
aF-0.8189814849550597
aI50000
aa(lp965
F3.5687146032238766
aF-0.25794719498121516
aI50000
aa(lp966
F1.2002513821343708
aF0.11608797385886517
aI8605
aa(lp967
F100.08321590455277
aF-0.16696232996815935
aI46076
aa(lp968
F1.7724461125775697
aF-0.03602427563576206
aI1425
aa(lp969
F7.887088057053037
aF-0.007143704626593726
aI13023
aa(lp970
F6.017040395848899
aF0.057543475651309066
aI10464
aa(lp971
F0.04759895966235577
aF0.008144760598282588
aI1292
aa(lp972
F6.509276017573357
aF-0.4027034776827205
aI14502
aa(lp973
F6.0768962833579065
aF0.49098449082864776
aI50000
aa(lp974
F5.064649152939149
aF0.19186314687412634
aI5168
aa(lp975
F8.204796142826865
aF-1.0290077536382607
aI10086
aa(lp976
F2.9234912934443122
aF0.015597186289765152
aI6299
aa(lp977
F0.8683185494307868
aF-0.03738472885233068
aI956
aa(lp978
F2.2572643133396353
aF-0.19182914354607075
aI2710
aa(lp979
F0.878923902038068
aF-0.18726691842778945
aI1409
aa(lp980
F95.65989985403871
aF0.1399622649182189
aI50000
aa(lp981
F3.1889879612923027
aF-0.47226442109055217
aI50000
aa(lp982
F0.1830211997474078
aF0.04392873261547121
aI1779
aa(lp983
F3.28265439261272
aF-0.10200250712314504
aI3732
aa(lp984
F0.8282898731950804
aF-0.32989056720878884
aI40544
aa(lp985
F2.7935644394736077
aF-0.0552447412617582
aI50000
aa(lp986
F96.42754166478737
aF-1.8511588377669408
aI50000
aa(lp987
F1.865242473894726
aF-0.2015590456166913
aI50000
aa(lp988
F-0.062154029184237555
aF-0.1698545857860454
aI207
aa(lp989
F4.0624511001718
aF-0.09547886278608864
aI4670
aa(lp990
F7.820435261715972
aF-0.08630139309263823
aI6321
aa(lp991
F1.6676415219026788
aF-0.16052887394121074
aI1915
aa(lp992
F100.07840255605346
aF-1.747189317243662
aI45722
aa(lp993
F2.8260243161652867
aF-0.8401440260971187
aI5295
aa(lp994
F0.17590843889007113
aF0.07272078881851156
aI72
aa(lp995
F3.211783036324302
aF0.11068763316578997
aI3742
aa(lp996
F6.057237296993177
aF-0.6209939888030035
aI8550
aa(lp997
F3.108561365462663
aF-0.22753714139000103
aI3169
aa(lp998
F3.097080281607405
aF-0.11672950556238557
aI4105
aa(lp999
F4.699064963893163
aF-0.2270530629233418
aI50000
aa(lp1000
F2.001526802717876
aF0.2690053789720185
aI50000
aa.