(lp0
(lp1
F0.37616663336744044
aF0.04715568657724084
aI3802
aa(lp2
F7.791723574482697
aF-0.9992713055733804
aI15204
aa(lp3
F1.688631365009043
aF0.0374461598602579
aI50000
aa(lp4
F2.3636752100520027
aF-0.35485954443979795
aI3367
aa(lp5
F1.4791529207985903
aF-0.045548014635846845
aI50000
aa(lp6
F0.34871261924146085
aF0.08309205263207482
aI50000
aa(lp7
F71.46703520673184
aF-5.854687941663199
aI50000
aa(lp8
F2.790427193292936
aF0.09921465662266842
aI3446
aa(lp9
F2.150212923147992
aF-0.0813558426526993
aI2494
aa(lp10
F89.89775201045934
aF-9.751847427650693
aI50000
aa(lp11
F3.842765019346644
aF-0.11634300190795552
aI6809
aa(lp12
F3.84958737562627
aF-0.07993935130229168
aI3977
aa(lp13
F0.8209090785497345
aF-0.15034951664763105
aI956
aa(lp14
F6.349937333107285
aF-0.4279241024600156
aI7736
aa(lp15
F0.9030301842029448
aF0.05197338092740396
aI704
aa(lp16
F7.436483121939411
aF0.5995736096412043
aI40140
aa(lp17
F2.0740935864212924
aF0.02450703070558385
aI3098
aa(lp18
F3.954117249794955
aF0.31181943060709133
aI10014
aa(lp19
F6.499229955665519
aF-0.7862501963416741
aI11279
aa(lp20
F76.97402779040088
aF-4.944700700009827
aI50000
aa(lp21
F5.504716098850567
aF0.019699110218638537
aI50000
aa(lp22
F5.858997650471912
aF0.11421606268789349
aI6843
aa(lp23
F5.937511009919973
aF-0.14211459942067672
aI23521
aa(lp24
F0.6327437231096625
aF-0.04377792555432782
aI50000
aa(lp25
F1.0226278991174547
aF-0.06281016598142454
aI1540
aa(lp26
F3.0374498196055337
aF0.21811952495296225
aI35336
aa(lp27
F3.211506055561277
aF-0.12395696753629777
aI9770
aa(lp28
F85.2258004119761
aF-5.3514418661194645
aI50000
aa(lp29
F7.595809027900442
aF-0.17417555554364283
aI13982
aa(lp30
F3.8063709140421587
aF-0.08159966088892603
aI19027
aa(lp31
F5.185274265930079
aF0.3529641420866601
aI8197
aa(lp32
F7.8491310836955295
aF-0.14363503897121382
aI50000
aa(lp33
F8.63442128681837
aF0.1846658917119528
aI10019
aa(lp34
F2.4267090933148276
aF-0.08160199081086691
aI4039
aa(lp35
F0.7102518445027521
aF0.1810723759561803
aI50000
aa(lp36
F4.9246249577579935
aF-0.6705460215261149
aI7830
aa(lp37
F5.010463304715858
aF0.3412791240000101
aI50000
aa(lp38
F56.25165144902755
aF-1.6885144763930435
aI50000
aa(lp39
F1.9708814625506332
aF-0.23210537662453937
aI2154
aa(lp40
F0.0890201363970271
aF-0.0013667665624440284
aI63
aa(lp41
F81.10119990671193
aF-6.278661996026004
aI50000
aa(lp42
F72.70964894815494
aF-4.3538122402719015
aI50000
aa(lp43
F2.693098660238792
aF0.4760144881900435
aI4701
aa(lp44
F0.30958986323424476
aF-0.14395964998863797
aI233
aa(lp45
F4.721518467261021
aF-0.2467317460166669
aI50000
aa(lp46
F4.862684008997942
aF-0.5217398092916152
aI38386
aa(lp47
F2.044056535311165
aF-0.12254995123059255
aI50000
aa(lp48
F1.5510101496141553
aF0.03874868125940086
aI32215
aa(lp49
F2.0540990412770967
aF0.1634711568619229
aI1874
aa(lp50
F4.962804555493832
aF0.13564833870416942
aI45009
aa(lp51
F5.251074382036147
aF-0.17381755093882728
aI15273
aa(lp52
F7.603318932349574
aF0.01946481331580669
aI10127
aa(lp53
F7.35635447693071
aF-0.01843924921621875
aI8888
aa(lp54
F0.11951953737928526
aF-0.047274214941411714
aI46
aa(lp55
F5.104946430841984
aF0.6472645255551698
aI50000
aa(lp56
F3.8454436707955817
aF-0.023719814130760124
aI50000
aa(lp57
F78.45445225263259
aF-4.267695123147418
aI50000
aa(lp58
F3.9647450580757284
aF-0.3069322278904223
aI15724
aa(lp59
F6.0785388027840686
aF-0.19350550044575432
aI50000
aa(lp60
F3.696294293472187
aF-0.11850912664521926
aI4553
aa(lp61
F6.238914658786546
aF-0.06394679083121313
aI50000
aa(lp62
F6.936249475605635
aF0.12356351582393865
aI20759
aa(lp63
F87.37128757899605
aF-6.599837710112957
aI50000
aa(lp64
F3.1341618112157423
aF0.28748675517529043
aI4441
aa(lp65
F7.448497607615415
aF0.08850098452997869
aI8005
aa(lp66
F4.43094381684702
aF-0.10477934902598823
aI6218
aa(lp67
F2.368380238690384
aF-0.3760607269120135
aI2516
aa(lp68
F4.602826453441117
aF-0.30806769183644567
aI7452
aa(lp69
F6.990650501036564
aF0.09522431676079013
aI50000
aa(lp70
F0.8609030579047878
aF-0.20409061479991153
aI667
aa(lp71
F5.1860617611642175
aF0.06220739269732983
aI7888
aa(lp72
F3.7642615309852805
aF-0.08480294095843872
aI25920
aa(lp73
F3.301794777503397
aF0.08132528274742462
aI50000
aa(lp74
F91.45237852684645
aF-4.741332725761849
aI50000
aa(lp75
F5.017171669822306
aF0.29724305041063326
aI50000
aa(lp76
F3.78144318544173
aF0.10816649362836711
aI4119
aa(lp77
F3.3038711567331185
aF-0.07597001081615015
aI6269
aa(lp78
F1.2773813802001206
aF0.05724946889657084
aI3001
aa(lp79
F3.275641154868504
aF0.1437439393657371
aI5303
aa(lp80
F55.42157251840241
aF-4.109538192000828
aI50000
aa(lp81
F2.3204101352349187
aF0.029409678880801107
aI14625
aa(lp82
F6.668863051130713
aF-0.21504180221140656
aI20354
aa(lp83
F2.6022199775444803
aF0.1817458052317384
aI50000
aa(lp84
F5.35351175123992
aF-0.0284573519379273
aI7817
aa(lp85
F0.22312924628452335
aF0.0906832867091766
aI50000
aa(lp86
F1.5492792189788942
aF0.018902316650259834
aI3024
aa(lp87
F2.5959033422980147
aF-0.15789363899378836
aI5932
aa(lp88
F1.6512269121484573
aF-0.12114361461996004
aI1598
aa(lp89
F7.741456048996792
aF0.03970712299981245
aI14552
aa(lp90
F0.8815322644939786
aF0.017345734748602452
aI1078
aa(lp91
F0.8386923678593321
aF-0.1802744870868248
aI688
aa(lp92
F6.253560367632432
aF-0.34600310569914694
aI50000
aa(lp93
F65.12244799714655
aF-7.1009091672301095
aI50000
aa(lp94
F71.15921543643366
aF-5.362989651134869
aI50000
aa(lp95
F3.3887942869488765
aF0.5017421740363724
aI5256
aa(lp96
F87.3114186265575
aF-4.155987352154939
aI50000
aa(lp97
F0.40307888290097044
aF-0.07277772298582895
aI12173
aa(lp98
F5.436105399840593
aF0.2316448698883929
aI5074
aa(lp99
F4.526934449884472
aF0.6257846337882912
aI5303
aa(lp100
F82.95876275357503
aF-2.6234615550038596
aI50000
aa(lp101
F0.8268828818323118
aF0.17687498296242318
aI50000
aa(lp102
F6.922793819532687
aF-0.20797950129631143
aI5820
aa(lp103
F5.801477797716985
aF-0.2025143429391296
aI49819
aa(lp104
F6.690260982173637
aF-0.21294311352916342
aI8214
aa(lp105
F2.5935523741102786
aF0.17680884488784201
aI50000
aa(lp106
F4.096326526253347
aF0.36741279880549804
aI50000
aa(lp107
F97.37804834334464
aF-8.768684244177624
aI50000
aa(lp108
F0.9840431249702523
aF-0.043275478048783095
aI947
aa(lp109
F7.600391424549089
aF0.10346667754918325
aI12623
aa(lp110
F2.2695353830359153
aF0.1829251924242621
aI3828
aa(lp111
F7.419486642962951
aF0.4334144199900606
aI11120
aa(lp112
F8.574175817225765
aF-0.32883651269217296
aI12286
aa(lp113
F3.4599069548188655
aF0.22983853641279806
aI4274
aa(lp114
F3.927366849683402
aF-0.006139986234432257
aI5486
aa(lp115
F3.5926519346482353
aF-0.26587629980237565
aI4929
aa(lp116
F98.95555457049655
aF-10.307217493302407
aI50000
aa(lp117
F0.36887187011419853
aF0.06714341769928742
aI50000
aa(lp118
F3.613431455984334
aF-0.12038770607744699
aI50000
aa(lp119
F95.87350109244896
aF-7.44442104792271
aI50000
aa(lp120
F5.70509784826065
aF0.22065066918725648
aI6388
aa(lp121
F3.6400657196372173
aF0.06561322624786922
aI18574
aa(lp122
F86.91608222613414
aF-6.246601055996673
aI50000
aa(lp123
F97.01598706847261
aF-10.601933861646952
aI50000
aa(lp124
F75.77428208228044
aF-6.63935259247312
aI50000
aa(lp125
F84.88475217373339
aF-9.690057851803823
aI50000
aa(lp126
F7.415903260055542
aF-0.08360936844824751
aI28378
aa(lp127
F3.0529786501607172
aF-0.18273366613621356
aI2559
aa(lp128
F81.36384571603521
aF-7.510885964013009
aI50000
aa(lp129
F1.7211959377630874
aF-0.01715407910381335
aI2787
aa(lp130
F91.94903374417899
aF-8.571251608029417
aI50000
aa(lp131
F10.032507883618017
aF-0.4910792887184301
aI50000
aa(lp132
F86.39227065867901
aF-11.38577089110916
aI50000
aa(lp133
F1.1114047642866864
aF0.529955311369914
aI2350
aa(lp134
F2.987424521932407
aF-0.42190030590905575
aI4453
aa(lp135
F1.037397055732362
aF0.03584890436573149
aI11707
aa(lp136
F7.640241893968261
aF0.19741622050352414
aI9071
aa(lp137
F5.277057444691988
aF0.5398876091955137
aI9995
aa(lp138
F0.7638962255063603
aF-0.08063142200252199
aI1175
aa(lp139
F8.409929700830203
aF-0.8392554211555933
aI11227
aa(lp140
F4.838019898538059
aF-0.045391786229245584
aI50000
aa(lp141
F1.7522494343156376
aF0.12877851134480306
aI3968
aa(lp142
F7.40950009610988
aF-0.2400328793358315
aI10242
aa(lp143
F1.8578250257875726
aF0.2799277084915103
aI1971
aa(lp144
F7.035994473088233
aF-0.07193291692642584
aI48735
aa(lp145
F4.632413086702476
aF-0.034597111303771855
aI5264
aa(lp146
F85.6126074800709
aF-3.4590004745244207
aI50000
aa(lp147
F4.876558819367026
aF0.32761676450491456
aI4105
aa(lp148
F0.20194279231851106
aF0.1880600583398712
aI241
aa(lp149
F84.53292463557072
aF-8.914881040149448
aI50000
aa(lp150
F1.683146814553242
aF0.1401863409271064
aI8701
aa(lp151
F1.2586799191489706
aF0.13553004136812352
aI1636
aa(lp152
F2.1291222096394327
aF-0.0054873144754412845
aI2202
aa(lp153
F6.616192555144158
aF-0.7814740484288873
aI13086
aa(lp154
F5.3167605918021925
aF0.05713932565368352
aI6177
aa(lp155
F5.64867540487027
aF-0.10953748411131585
aI5952
aa(lp156
F1.3884931425708271
aF-0.0050564623410736375
aI1591
aa(lp157
F68.01947476725918
aF-4.3559186867398605
aI50000
aa(lp158
F2.945704172909002
aF-0.29352840013486664
aI50000
aa(lp159
F56.735830081981085
aF-0.041838593923025746
aI50000
aa(lp160
F1.2551408845724714
aF-0.07722032740798436
aI6879
aa(lp161
F2.5573400495497216
aF-0.1695124687032144
aI3479
aa(lp162
F7.282355694540585
aF-0.14416546523936244
aI50000
aa(lp163
F1.4978898216786727
aF-0.1554299602960664
aI2329
aa(lp164
F1.9646137774469143
aF-0.20489545063047307
aI5778
aa(lp165
F-0.09994279529829601
aF-0.2641273350440147
aI182
aa(lp166
F83.76768300682441
aF-7.50517255319808
aI50000
aa(lp167
F3.8842338016210034
aF-0.1171648419422814
aI50000
aa(lp168
F5.301616216487208
aF-0.1635463252446861
aI7543
aa(lp169
F3.118836496451316
aF-0.07951306032414795
aI4610
aa(lp170
F2.7116841347376583
aF0.329646204747064
aI50000
aa(lp171
F2.4890365772744416
aF0.010711249292147909
aI50000
aa(lp172
F3.6686447704968574
aF0.32163103395337156
aI7744
aa(lp173
F0.583487827861574
aF-0.044895635981876805
aI50000
aa(lp174
F2.3455342662181633
aF-0.24014653198147531
aI50000
aa(lp175
F0.43757836721802895
aF-0.12592434655363205
aI50000
aa(lp176
F8.90150194605596
aF-0.08026435785142683
aI23496
aa(lp177
F0.8971812856887379
aF-0.045750584449490116
aI568
aa(lp178
F6.774687577169292
aF-0.26120069034678806
aI44772
aa(lp179
F4.262519963290032
aF0.16861597567046657
aI15774
aa(lp180
F2.626878890738029
aF0.1647825890767032
aI50000
aa(lp181
F74.25544646979331
aF-3.4617623853385293
aI50000
aa(lp182
F1.5501957633586023
aF-0.20685022348294452
aI12413
aa(lp183
F4.892764597773776
aF-0.1376115519172776
aI30384
aa(lp184
F1.6571782684079572
aF-0.025861248302816643
aI3324
aa(lp185
F0.27861160710233207
aF-0.10639988983260906
aI944
aa(lp186
F1.7811779986769223
aF-0.06556184142203562
aI5160
aa(lp187
F0.45975877282031735
aF-0.07869661806316236
aI484
aa(lp188
F3.5682146847313083
aF0.13715236580132173
aI6048
aa(lp189
F1.1216876130848739
aF-0.022300385635677124
aI1051
aa(lp190
F0.3995769037448787
aF0.04236312626112178
aI604
aa(lp191
F91.92225416344962
aF-9.87351708635497
aI50000
aa(lp192
F1.261613185907126
aF0.1302207819137754
aI2706
aa(lp193
F2.4455121326395175
aF0.09943911248782288
aI4081
aa(lp194
F60.45110702269815
aF-2.0341440915567084
aI50000
aa(lp195
F4.863504009038212
aF0.07052089155104353
aI8850
aa(lp196
F0.0159297261512769
aF-0.0015211863896984349
aI50000
aa(lp197
F2.332621108322825
aF0.2058779184399255
aI2507
aa(lp198
F9.042082982630607
aF-0.03833854352651243
aI38689
aa(lp199
F4.160006031562819
aF0.19679042237485567
aI3509
aa(lp200
F6.308040729913694
aF0.5486756442703975
aI9738
aa(lp201
F7.816979189746954
aF0.6127298486291369
aI10076
aa(lp202
F84.15832955119623
aF-5.415986793099465
aI50000
aa(lp203
F2.6558571712261303
aF0.06126768621535237
aI7936
aa(lp204
F1.6620074332079728
aF0.026824652317191784
aI50000
aa(lp205
F85.010544610468
aF-6.435283502685188
aI50000
aa(lp206
F1.9866146900119794
aF0.1974504123958672
aI4705
aa(lp207
F7.824380529290642
aF-0.10644226417581668
aI50000
aa(lp208
F0.09168457630478596
aF0.07420675126681361
aI910
aa(lp209
F6.406870702161126
aF0.7126406044100683
aI26408
aa(lp210
F2.485078548510689
aF-0.354004701147654
aI50000
aa(lp211
F57.29505718869898
aF-6.266407627723421
aI50000
aa(lp212
F1.2718147781870792
aF-0.34135224006950105
aI2868
aa(lp213
F2.3375781615732043
aF-0.011068651851758425
aI36422
aa(lp214
F7.902207005144249
aF-0.14426982766934496
aI7377
aa(lp215
F1.3608712048101828
aF-0.10815250628996505
aI1937
aa(lp216
F0.26606057748157486
aF0.51236677015761
aI10520
aa(lp217
F4.31823266183243
aF0.04608599338411028
aI50000
aa(lp218
F0.7768636247528475
aF-0.12817089888710553
aI745
aa(lp219
F7.974532497621491
aF-0.36132600204288456
aI9870
aa(lp220
F21.148298187388175
aF-1.080673140698259
aI50000
aa(lp221
F1.824782027585665
aF-0.051699434728801376
aI1977
aa(lp222
F2.140246788835944
aF0.028560856380876114
aI1521
aa(lp223
F1.759579054204307
aF0.06873858572922587
aI50000
aa(lp224
F3.746795396917975
aF-0.059984137656650886
aI11303
aa(lp225
F4.482369689403386
aF-0.3752251656624897
aI12403
aa(lp226
F1.6806216866328927
aF0.06223938963995485
aI4502
aa(lp227
F2.0312333313608693
aF0.22055129647897032
aI50000
aa(lp228
F1.0418282095022482
aF0.0905182597788474
aI1121
aa(lp229
F8.979155392262932
aF0.0138368813913366
aI24693
aa(lp230
F7.806932988066543
aF-0.2042179418101172
aI18040
aa(lp231
F6.804929026888788
aF-0.01463788835460628
aI21524
aa(lp232
F3.8769619715318036
aF-0.21527614119749053
aI5038
aa(lp233
F5.868408019725107
aF-0.3330638910416088
aI9638
aa(lp234
F0.6228483562246185
aF-0.04729529722559033
aI50000
aa(lp235
F2.161266077258067
aF-0.1464965951125743
aI6517
aa(lp236
F0.9463296210331489
aF0.06525566318461284
aI14080
aa(lp237
F49.98953520763164
aF-1.3226556562069507
aI50000
aa(lp238
F8.308132947387922
aF0.464295072524119
aI38487
aa(lp239
F68.93969450176078
aF-5.512240368082464
aI50000
aa(lp240
F2.346465794935116
aF-0.31502650305377394
aI5536
aa(lp241
F1.323474469799733
aF-0.2744234271628322
aI3146
aa(lp242
F0.8447478644307408
aF-0.2149968310246821
aI3481
aa(lp243
F8.17276872089184
aF0.26437673599745604
aI14210
aa(lp244
F6.993463241311845
aF0.3284338245940314
aI8065
aa(lp245
F2.165776196185867
aF0.11401206255525184
aI11801
aa(lp246
F2.081469843838729
aF-0.13064399049779415
aI50000
aa(lp247
F0.0396408928650889
aF0.006269006663701507
aI50000
aa(lp248
F2.498509620658154
aF0.29206086929424246
aI2178
aa(lp249
F31.488229457566277
aF-1.8811056240272188
aI50000
aa(lp250
F1.8729301789773902
aF0.03157352808055186
aI1739
aa(lp251
F2.0892844096487497
aF-0.13085793553960376
aI50000
aa(lp252
F5.452024064058455
aF0.33589597971147733
aI6189
aa(lp253
F6.376865009307806
aF0.021689701745730865
aI4370
aa(lp254
F1.022632610860398
aF-0.13014199636146037
aI1452
aa(lp255
F8.773520673024368
aF-0.8585155841429373
aI13298
aa(lp256
F87.85040698538363
aF-7.893557350231029
aI50000
aa(lp257
F6.988249696431384
aF0.053083593510287186
aI50000
aa(lp258
F5.556294805446389
aF-0.04966054333593958
aI43840
aa(lp259
F-0.0043272832682979805
aF0.02653167612615903
aI503
aa(lp260
F4.827862706422841
aF0.18605844856000933
aI9919
aa(lp261
F1.879614331403185
aF-0.0046866592379598854
aI3688
aa(lp262
F5.203734604539844
aF-0.3190070733810593
aI27693
aa(lp263
F6.947178791686595
aF0.09842082323661824
aI50000
aa(lp264
F3.0942182607432094
aF0.001052047449519397
aI7175
aa(lp265
F2.1539728497987256
aF0.18567465016169146
aI2578
aa(lp266
F1.9180468852122474
aF0.18236300658585955
aI5124
aa(lp267
F3.6831822320867635
aF-0.15202492931962222
aI3945
aa(lp268
F91.35273013889443
aF-5.723440122212672
aI50000
aa(lp269
F5.054009413965832
aF0.250907107716488
aI5830
aa(lp270
F7.959078224950904
aF-0.33210697458336014
aI12506
aa(lp271
F1.7900330285146862
aF0.10184491008907919
aI3375
aa(lp272
F2.3132270241259607
aF-0.11673705092940688
aI2714
aa(lp273
F0.7683914190487222
aF-0.11207367439410826
aI2530
aa(lp274
F80.05653695677532
aF-9.886186983787141
aI50000
aa(lp275
F7.193229144702556
aF-0.12064345241953502
aI28335
aa(lp276
F8.861481103090151
aF-0.054710310033016595
aI14411
aa(lp277
F4.422934641728881
aF-0.3283451850456381
aI9187
aa(lp278
F1.8878978710434209
aF-0.04551932066420903
aI50000
aa(lp279
F5.399054359250356
aF0.07818499408410297
aI41413
aa(lp280
F3.7471299148333146
aF-0.504775214029833
aI50000
aa(lp281
F8.001003931148205
aF-0.0947259869468504
aI26457
aa(lp282
F85.19874053380404
aF-5.588553063571469
aI50000
aa(lp283
F6.016412694634334
aF-0.1971496778050583
aI6044
aa(lp284
F1.3938576228547683
aF0.10008541078798402
aI1563
aa(lp285
F5.409360926174213
aF-0.3127163595393883
aI50000
aa(lp286
F6.343529927430646
aF-0.1481919558384355
aI7646
aa(lp287
F1.1552806007765957
aF-0.058675159050266774
aI1689
aa(lp288
F2.211093370658432
aF-0.10417216905784513
aI4702
aa(lp289
F2.130226435715766
aF0.17919509604863215
aI7761
aa(lp290
F7.795322489114067
aF-0.08274660273735988
aI50000
aa(lp291
F1.789101032986207
aF-0.12313957497507376
aI2117
aa(lp292
F3.9174363886358425
aF0.0017933522099729928
aI6514
aa(lp293
F7.856620947069442
aF0.4011191176045502
aI50000
aa(lp294
F4.741442213527142
aF-0.14638054643580636
aI4443
aa(lp295
F0.8244394146233759
aF-0.021505330977702318
aI12376
aa(lp296
F1.6153546894062918
aF0.2177552894396363
aI50000
aa(lp297
F5.271644985936558
aF-0.1543848632093767
aI4982
aa(lp298
F6.441801745755479
aF-0.4331677873864522
aI50000
aa(lp299
F0.1649463160049161
aF-0.26738373827154155
aI7958
aa(lp300
F4.728203722267418
aF-0.1358113485677594
aI7923
aa(lp301
F0.9631703294484187
aF-0.31704099755312326
aI4508
aa(lp302
F7.135702111438367
aF-0.02678288466228444
aI9414
aa(lp303
F75.95675183428962
aF-5.057566639620198
aI50000
aa(lp304
F2.203139410076983
aF-0.39635114778991837
aI2222
aa(lp305
F82.14935526654172
aF-6.356721157320796
aI50000
aa(lp306
F3.1845700724043464
aF0.35828793599247793
aI3303
aa(lp307
F4.623299747442238
aF-0.3030866281518009
aI29556
aa(lp308
F5.270877106405871
aF0.07236333937876353
aI8058
aa(lp309
F0.5755570884839922
aF-0.02070814255420817
aI459
aa(lp310
F6.058197430322312
aF0.2770624862150984
aI10286
aa(lp311
F0.3118548124816196
aF-0.20196772580356193
aI451
aa(lp312
F3.870644649369666
aF0.1473195013934497
aI3892
aa(lp313
F18.555163056525707
aF-1.2693015580050315
aI50000
aa(lp314
F77.36125888211848
aF-5.084818447197884
aI50000
aa(lp315
F3.728178347887361
aF-0.4812253677279081
aI50000
aa(lp316
F0.6065906491738163
aF0.1645569410355979
aI652
aa(lp317
F91.5446850977636
aF-8.169473546505303
aI50000
aa(lp318
F48.04307466057917
aF-4.140396448965449
aI50000
aa(lp319
F1.780755696930032
aF0.06539235611259475
aI50000
aa(lp320
F1.9921696457824951
aF0.22529876616691652
aI2871
aa(lp321
F2.3511529664986925
aF0.3068718400752015
aI50000
aa(lp322
F78.07426794044234
aF-2.5847666626488244
aI50000
aa(lp323
F2.0751051036752544
aF0.11804848930893547
aI2708
aa(lp324
F1.4622695078505727
aF0.0023875429215405885
aI1571
aa(lp325
F3.7348702446100437
aF-0.034961198173610514
aI3609
aa(lp326
F2.619875578249591
aF0.16261095455122346
aI50000
aa(lp327
F9.046609457742449
aF-0.07889154800854062
aI47206
aa(lp328
F2.3329090138366366
aF-0.1882216665489464
aI6341
aa(lp329
F1.9999000027340872
aF0.26908461313714965
aI8105
aa(lp330
F31.289543777244102
aF-1.4225882220569175
aI50000
aa(lp331
F1.5077354343578975
aF0.1421145994207538
aI14666
aa(lp332
F8.326844228768914
aF0.25900387705812944
aI12402
aa(lp333
F0.4346094937254149
aF0.017513947717373066
aI601
aa(lp334
F1.361221568406947
aF-0.19433594114178984
aI23514
aa(lp335
F3.6315733277662714
aF-0.1258902840022768
aI50000
aa(lp336
F2.245991306870191
aF-0.1163790612482247
aI3722
aa(lp337
F0.3095214648763728
aF0.12996013331426823
aI32620
aa(lp338
F1.1688044029632845
aF0.003632944647259823
aI999
aa(lp339
F2.143791600712944
aF-0.12586194772036455
aI50000
aa(lp340
F5.007462561767513
aF0.09952536873538365
aI7239
aa(lp341
F3.8694452454897954
aF-0.014155226156212942
aI4144
aa(lp342
F2.2458140880642112
aF-0.18913621814139364
aI19820
aa(lp343
F0.5755460489623355
aF0.218444952476423
aI1526
aa(lp344
F64.52442850127596
aF-5.25015281149358
aI50000
aa(lp345
F1.7948696441438783
aF-0.46786188736145773
aI2472
aa(lp346
F0.1659450296294841
aF0.10682152429414415
aI167
aa(lp347
F83.55973981151355
aF-9.43264284021684
aI50000
aa(lp348
F1.1867548773776198
aF-0.08410261982444961
aI1170
aa(lp349
F2.6472315346840682
aF-0.2040002454347125
aI3454
aa(lp350
F1.6004543485026903
aF-0.047602666324963225
aI25376
aa(lp351
F70.07596707475868
aF-6.261827017699569
aI50000
aa(lp352
F92.52925247738959
aF-9.631007770677504
aI50000
aa(lp353
F3.6315270688335
aF-0.11547548853414252
aI5163
aa(lp354
F0.9836634396201066
aF-0.02173400018774624
aI18141
aa(lp355
F5.902422253546957
aF0.15798903636865166
aI29359
aa(lp356
F74.02000044874994
aF-5.052059049156172
aI50000
aa(lp357
F8.95372523807448
aF0.33483072938357067
aI50000
aa(lp358
F4.286547871712769
aF0.4852383273956714
aI50000
aa(lp359
F88.33545040725761
aF-3.01737175570834
aI50000
aa(lp360
F85.17454595081018
aF-4.272896894444265
aI50000
aa(lp361
F1.8112764524324358
aF0.6304569854433643
aI5532
aa(lp362
F65.37694733331946
aF-5.669594927926484
aI50000
aa(lp363
F0.3100477609064583
aF-0.227886034841631
aI2245
aa(lp364
F0.6591211750064941
aF-0.08167645549279638
aI50000
aa(lp365
F0.10111535146041252
aF0.28835557645698734
aI50000
aa(lp366
F2.730242584220246
aF-0.006554149405009235
aI4081
aa(lp367
F85.31961015953773
aF-8.717164271744846
aI50000
aa(lp368
F3.2536515178165235
aF-0.20131062941004535
aI7722
aa(lp369
F1.0568350881590491
aF0.018574301295624
aI976
aa(lp370
F0.7217510464003644
aF-0.14429641970597756
aI1883
aa(lp371
F7.645483617511519
aF-0.372482784112339
aI15739
aa(lp372
F23.638450901745838
aF-0.5836847061380547
aI50000
aa(lp373
F2.0255996992148853
aF0.33796162437922805
aI19263
aa(lp374
F2.171982021100269
aF0.029021618874937514
aI2483
aa(lp375
F2.9430971448638545
aF-0.01647352984770728
aI4194
aa(lp376
F5.428826318789257
aF-0.47106266366779187
aI50000
aa(lp377
F0.5526152394513685
aF0.01672849591596006
aI624
aa(lp378
F1.7364598849039048
aF-0.1823049172329274
aI3491
aa(lp379
F4.813562222977491
aF0.000773503887833048
aI27514
aa(lp380
F32.92217451510184
aF-1.4955484063803741
aI50000
aa(lp381
F7.2567987479566405
aF-0.09057343010968187
aI50000
aa(lp382
F5.029139772519382
aF0.008660681160528861
aI50000
aa(lp383
F5.264780155638349
aF0.7353559037769152
aI9500
aa(lp384
F6.101173465033075
aF-0.015893117219590663
aI50000
aa(lp385
F7.155338551625595
aF0.029447580719023755
aI16825
aa(lp386
F0.01349161402703248
aF0.13602091735633962
aI50000
aa(lp387
F4.388965156809395
aF0.005201389412771027
aI5976
aa(lp388
F87.95155810865384
aF-10.233876656048631
aI50000
aa(lp389
F0.4759789367208738
aF-0.26038832581770155
aI513
aa(lp390
F0.11961018634421534
aF0.05854752912427511
aI50000
aa(lp391
F82.40084841170248
aF-4.803879656729944
aI50000
aa(lp392
F80.57388402747881
aF-4.845624456669154
aI50000
aa(lp393
F7.084811644906178
aF-0.6898525858277095
aI13722
aa(lp394
F2.9482545990481035
aF-0.13848975655046775
aI6165
aa(lp395
F2.1961160444734964
aF-0.16090717852523093
aI3020
aa(lp396
F3.6977282902648874
aF-0.3445562417010745
aI50000
aa(lp397
F0.9090700402251352
aF0.005161792792859384
aI1177
aa(lp398
F-0.060020792080501144
aF-0.046343532217019145
aI721
aa(lp399
F90.66242244658874
aF-7.806470750603697
aI50000
aa(lp400
F8.756562899006559
aF0.7368380154247355
aI19191
aa(lp401
F4.829849416098273
aF0.20874760688088548
aI50000
aa(lp402
F0.8848585082914205
aF-0.2225352811989481
aI891
aa(lp403
F6.917331533614774
aF-0.4255956799272185
aI23462
aa(lp404
F7.8148288114347855
aF-0.18405534901253723
aI34257
aa(lp405
F5.186888294875138
aF-0.27442934490300397
aI8558
aa(lp406
F45.53430210479963
aF-3.2249158137965606
aI50000
aa(lp407
F2.941988270151325
aF-0.03279145746499012
aI2985
aa(lp408
F77.34649116081708
aF-7.307189732112099
aI50000
aa(lp409
F2.340427349615975
aF-0.2484755826935082
aI4184
aa(lp410
F0.7772039598408932
aF-0.12138922907335292
aI866
aa(lp411
F2.2359316901026576
aF-0.5380364751731197
aI2437
aa(lp412
F59.53456265369337
aF-4.014869430160132
aI50000
aa(lp413
F7.0742347986593686
aF-0.12956362973340824
aI8414
aa(lp414
F95.35277717193277
aF-11.669383797215984
aI50000
aa(lp415
F8.794118159450075
aF0.6061199405693124
aI14665
aa(lp416
F6.980022382890188
aF0.4524615316639611
aI12364
aa(lp417
F77.18522647759409
aF-4.912002525959476
aI50000
aa(lp418
F4.316011627705947
aF-0.29470442031856503
aI5271
aa(lp419
F1.5299488218104436
aF-0.04854141310705359
aI5693
aa(lp420
F4.7265235968811306
aF0.06539871912005264
aI45304
aa(lp421
F5.265079617596037
aF0.19684111462854004
aI5309
aa(lp422
F5.681569211566392
aF-0.01669762491155321
aI5074
aa(lp423
F4.0587720407960735
aF-0.5188351934427387
aI5912
aa(lp424
F2.135642646654608
aF-0.23621059179583945
aI6255
aa(lp425
F2.007294612191768
aF0.057691059246021095
aI2062
aa(lp426
F2.0815425492741086
aF0.03820860694500061
aI50000
aa(lp427
F91.80263750259085
aF-5.965212735869921
aI50000
aa(lp428
F5.312545030834524
aF0.14931737635671674
aI4956
aa(lp429
F4.026251445294838
aF-0.24356004500428946
aI50000
aa(lp430
F88.64584465764268
aF-11.841946891931471
aI50000
aa(lp431
F-0.0335701943517256
aF0.046129344663835135
aI50000
aa(lp432
F69.34047548682109
aF-2.890064229685743
aI50000
aa(lp433
F5.291097848707801
aF-0.05387413969461788
aI6803
aa(lp434
F7.1519100413832
aF0.235622251977901
aI8543
aa(lp435
F3.366342215668259
aF-0.35353707618373675
aI3891
aa(lp436
F5.425699310808191
aF-0.2177711383439943
aI50000
aa(lp437
F5.243798674090059
aF-0.20311487768180114
aI14196
aa(lp438
F6.1781370957055755
aF-0.017622561956167425
aI4807
aa(lp439
F4.293052090577571
aF-0.15979384671386238
aI5287
aa(lp440
F4.327514842514974
aF-0.24389016225273452
aI50000
aa(lp441
F7.428230672323806
aF-0.7687398251813077
aI11087
aa(lp442
F3.774532661401507
aF-0.10904109112071171
aI4239
aa(lp443
F1.207599530383134
aF-0.09229657886803001
aI6872
aa(lp444
F4.7423180382229395
aF0.017066605465031054
aI6333
aa(lp445
F6.991760114200413
aF-0.2563512397330049
aI13180
aa(lp446
F3.8379355717049215
aF0.25570565229202125
aI4935
aa(lp447
F4.087616649707266
aF0.616068791532452
aI6335
aa(lp448
F2.133061936925092
aF-0.34107990552363193
aI4199
aa(lp449
F1.255791399439057
aF0.1114401295871688
aI1752
aa(lp450
F2.6557859535670207
aF0.06703059386121953
aI2105
aa(lp451
F4.851479154784617
aF0.12826322824596795
aI50000
aa(lp452
F92.81610640921691
aF-7.199102454836801
aI50000
aa(lp453
F7.4984522798516675
aF0.5215182365826566
aI13924
aa(lp454
F95.28586525103226
aF-8.367875541790673
aI50000
aa(lp455
F7.909945536764933
aF-0.612392223929285
aI12260
aa(lp456
F-0.4473591735443317
aF0.13289165297348215
aI572
aa(lp457
F0.03190593696989563
aF0.08967828302884771
aI50000
aa(lp458
F83.15255175878434
aF-5.5127424162869625
aI50000
aa(lp459
F0.023970120993787696
aF-0.1757937719227218
aI50000
aa(lp460
F8.807248425915661
aF0.22009417688538221
aI13791
aa(lp461
F0.2526801709211252
aF0.04457595331960197
aI50000
aa(lp462
F7.169552123677344
aF-0.4580136138255778
aI8171
aa(lp463
F1.500039723441137
aF0.31817982259662314
aI50000
aa(lp464
F7.647425867690983
aF0.310219713915962
aI9706
aa(lp465
F3.9139676322821106
aF0.06258906241882867
aI5697
aa(lp466
F5.4821119705605925
aF-0.6851769710597386
aI7875
aa(lp467
F0.9646579207072374
aF0.14340490973411582
aI1360
aa(lp468
F8.108694011513583
aF0.3346847583269333
aI41536
aa(lp469
F2.1928583916018503
aF-0.14635811888312894
aI3110
aa(lp470
F70.36195884566301
aF-1.5281819054112964
aI50000
aa(lp471
F1.7039886510641356
aF0.011104721853667131
aI3464
aa(lp472
F7.802313694459816
aF-0.4032530758456271
aI50000
aa(lp473
F84.06598879388483
aF-6.606504137233614
aI50000
aa(lp474
F1.9978603416308809
aF-0.2787236799423474
aI1735
aa(lp475
F1.8700301279280906
aF0.07955210142931943
aI1779
aa(lp476
F9.017526574714118
aF0.10002590817059206
aI21675
aa(lp477
F1.1317977485299227
aF-0.09883489337522491
aI911
aa(lp478
F8.989082693858471
aF1.0024921599801253
aI20326
aa(lp479
F1.820689824870655
aF-0.15592923141522044
aI7913
aa(lp480
F9.093847018591692
aF-0.06950467679352255
aI15661
aa(lp481
F4.352452060731122
aF0.14402101350593033
aI50000
aa(lp482
F7.308156384510239
aF0.003069360249130366
aI7722
aa(lp483
F1.7767357448281937
aF-0.14635861453682128
aI1211
aa(lp484
F1.9215008951687012
aF-0.025040159284585885
aI2037
aa(lp485
F7.8981812191800485
aF-0.17211016327683668
aI13149
aa(lp486
F77.27453870211457
aF-7.345692068413347
aI50000
aa(lp487
F1.346449828977659
aF-0.011164652225345907
aI3545
aa(lp488
F7.95512109055981
aF-0.609077466633044
aI15079
aa(lp489
F2.0819590737216314
aF-0.4098109180743667
aI2641
aa(lp490
F1.9150005118080242
aF-0.36793645465347286
aI3067
aa(lp491
F0.9454683511139848
aF-0.07096346383700489
aI1017
aa(lp492
F57.484334487981435
aF-3.7207162165419057
aI50000
aa(lp493
F4.279345627083228
aF0.4436073225468712
aI50000
aa(lp494
F6.038741039406603
aF0.15992976475432247
aI10575
aa(lp495
F93.40685594930235
aF-5.939359790839081
aI50000
aa(lp496
F5.28759996207351
aF-0.5119732194523368
aI50000
aa(lp497
F0.4137673036500075
aF-0.01564312543037826
aI898
aa(lp498
F94.37863193797925
aF-7.828875837666915
aI50000
aa(lp499
F3.931516628252596
aF0.005198978137193579
aI6537
aa(lp500
F3.5843193237143534
aF-0.12764028257735713
aI50000
aa(lp501
F3.1993748747471424
aF0.045124877817621735
aI5400
aa(lp502
F6.956423341002898
aF-0.23565093398964837
aI50000
aa(lp503
F0.24671556911160453
aF-0.15677889009115165
aI1113
aa(lp504
F1.7133061947968309
aF-0.22310145896435543
aI2311
aa(lp505
F81.79276299355158
aF-5.613625717817079
aI50000
aa(lp506
F2.389845645416578
aF0.035428625979132246
aI4380
aa(lp507
F8.135775960393493
aF-0.9920064329965852
aI23633
aa(lp508
F0.8179971198819229
aF-0.18142058931644192
aI34922
aa(lp509
F3.6542850288544617
aF-0.00131217820018098
aI4177
aa(lp510
F65.13197788835825
aF-3.9791722122232076
aI50000
aa(lp511
F-0.02363638960396621
aF0.06442711839163157
aI50000
aa(lp512
F0.11201339061400935
aF-0.09514234591583225
aI45
aa(lp513
F1.2957534468509586
aF0.01398619775623356
aI50000
aa(lp514
F3.4037683457040653
aF-0.32381072901182484
aI20877
aa(lp515
F7.839077430990764
aF-0.01868284048270708
aI13054
aa(lp516
F2.591639839911484
aF0.10315521986542457
aI5615
aa(lp517
F0.902287277899922
aF0.03197010791680267
aI1247
aa(lp518
F1.0734803559856607
aF0.07720388206723466
aI50000
aa(lp519
F94.70799059927342
aF-7.310780499276005
aI50000
aa(lp520
F7.412158412018544
aF0.13132930901066361
aI15435
aa(lp521
F3.7903799964702336
aF0.009347092129853227
aI4691
aa(lp522
F1.7899786437315608
aF0.017188615789088695
aI1956
aa(lp523
F7.224519809400944
aF-0.04106800835361752
aI50000
aa(lp524
F83.19996310085087
aF-3.5768872595383807
aI50000
aa(lp525
F7.479207792229305
aF-0.35688365774933634
aI16267
aa(lp526
F0.2058255920941623
aF0.004075958812503632
aI1287
aa(lp527
F7.7767323264570365
aF-0.05516818451789929
aI50000
aa(lp528
F7.8094163607358364
aF-0.0849979647021982
aI50000
aa(lp529
F1.1409299348307043
aF-0.13549181876179056
aI2399
aa(lp530
F8.476939651139052
aF0.16240691693232098
aI10217
aa(lp531
F7.8230464619512325
aF-0.0483192893351633
aI8744
aa(lp532
F7.765414325755016
aF0.02950018346949683
aI14058
aa(lp533
F1.0516021076808095
aF0.018225387284930367
aI1549
aa(lp534
F72.60316742364797
aF-4.985659488461267
aI50000
aa(lp535
F1.6487467303832442
aF0.013971803621001578
aI50000
aa(lp536
F3.35681436778904
aF0.022785646184554576
aI50000
aa(lp537
F6.2586439255377595
aF-0.6380595229820218
aI50000
aa(lp538
F2.9661034901910392
aF0.1572017832095454
aI50000
aa(lp539
F1.6889989743098066
aF0.05912686384404281
aI2015
aa(lp540
F1.944415407185353
aF0.00613980978761031
aI4329
aa(lp541
F7.044990215515331
aF0.13618137010236944
aI20803
aa(lp542
F6.463971707964057
aF0.13423303212931598
aI8711
aa(lp543
F0.36229159991233273
aF-0.1289627356496385
aI499
aa(lp544
F8.139114091982451
aF-0.5357578491462204
aI13996
aa(lp545
F8.411907992260957
aF0.17939590217248955
aI50000
aa(lp546
F4.987875074882526
aF0.49143304160546275
aI27896
aa(lp547
F3.6963612469262426
aF0.09477773111103202
aI4131
aa(lp548
F1.0582194169842898
aF0.03007768625349753
aI1255
aa(lp549
F85.45012126535192
aF-7.564621668943295
aI50000
aa(lp550
F5.4080180554341
aF-0.02419356515917043
aI8160
aa(lp551
F0.026915436107836706
aF-0.0334291152136792
aI50000
aa(lp552
F1.3021055725782777
aF0.24421720834716437
aI1902
aa(lp553
F1.2122132739385414
aF0.5446588226373743
aI4120
aa(lp554
F0.14942288571115886
aF0.030898533213809892
aI445
aa(lp555
F2.840324896370121
aF-0.008480905262715034
aI3238
aa(lp556
F2.255581503758266
aF-0.16587173233945077
aI20348
aa(lp557
F7.011075305261336
aF0.277347357033304
aI12468
aa(lp558
F5.240700714554114
aF-0.46699015754736023
aI10415
aa(lp559
F0.24323539307970543
aF0.07199782510847154
aI50000
aa(lp560
F7.266291409197676
aF-0.0830560512542111
aI50000
aa(lp561
F3.088310130396962
aF0.1680174097822124
aI4448
aa(lp562
F5.013700414827748
aF0.3215164932470021
aI50000
aa(lp563
F76.50939705939419
aF-3.5122350258555155
aI50000
aa(lp564
F1.0772961728377062
aF-0.03582488078180411
aI50000
aa(lp565
F0.17715793793572973
aF-0.15330616008394887
aI50000
aa(lp566
F7.805391960116749
aF0.355441079606216
aI18669
aa(lp567
F3.1080781210671518
aF0.35157819517525357
aI3032
aa(lp568
F1.679588556524421
aF-0.00921512060855925
aI3588
aa(lp569
F3.025270731273053
aF-0.03780915509456787
aI50000
aa(lp570
F86.82143427852776
aF-8.806060952861511
aI50000
aa(lp571
F7.364645060022479
aF-0.37557321731939064
aI24909
aa(lp572
F4.847653427878696
aF0.41959115923104356
aI48695
aa(lp573
F2.6281204680032064
aF-0.08261983527963662
aI50000
aa(lp574
F5.016152701538007
aF-0.6130494162675458
aI10714
aa(lp575
F2.6275224471740932
aF0.17368235463298493
aI50000
aa(lp576
F55.4701684193921
aF-2.6813307221450753
aI50000
aa(lp577
F7.869017694429374
aF0.4071280920484699
aI8761
aa(lp578
F85.36810223454786
aF-4.014566590465319
aI50000
aa(lp579
F8.103680219780673
aF-0.5417451074890451
aI24974
aa(lp580
F85.14127449946078
aF-3.554239358734575
aI50000
aa(lp581
F4.263305918678429
aF0.20713362902262913
aI8306
aa(lp582
F7.910936830111491
aF-0.6196494049850256
aI20908
aa(lp583
F0.3050988112719952
aF0.07871966163531936
aI206
aa(lp584
F2.458847953350326
aF-0.277524668624268
aI3609
aa(lp585
F7.864262190146333
aF0.407087012698856
aI10171
aa(lp586
F0.8239238252647969
aF-0.0660686463140844
aI992
aa(lp587
F1.0188897159805632
aF0.02314790693917253
aI886
aa(lp588
F4.502637295913882
aF-0.3171988780780408
aI34936
aa(lp589
F1.0327925469245898
aF-0.1309004265400309
aI718
aa(lp590
F32.990334872256945
aF-0.6010875255295669
aI50000
aa(lp591
F2.6425532113665913
aF0.023463840388311667
aI2753
aa(lp592
F2.0955567319003516
aF0.04290237811001686
aI50000
aa(lp593
F89.0285958023432
aF-6.874311026429958
aI50000
aa(lp594
F1.9739937485949521
aF-0.356488792130058
aI5118
aa(lp595
F7.581812779899891
aF-0.4868765821987527
aI11369
aa(lp596
F0.6161262461862314
aF0.08542761704446905
aI50000
aa(lp597
F3.507474594035282
aF0.007069530648769099
aI7683
aa(lp598
F5.872635949438305
aF0.15233536183985952
aI5557
aa(lp599
F4.359394221802145
aF-0.019812541538127327
aI4120
aa(lp600
F0.37196278051244264
aF-0.1417308408630105
aI363
aa(lp601
F4.712099190077437
aF-0.24372348294977333
aI50000
aa(lp602
F2.3388729755049957
aF-0.229753250000539
aI50000
aa(lp603
F5.969640566345352
aF-0.050094380134472045
aI4599
aa(lp604
F0.019987118239581506
aF0.06577669497087697
aI50000
aa(lp605
F90.67706129557195
aF-8.049131106568083
aI50000
aa(lp606
F2.646239469154409
aF0.06784065063734473
aI7041
aa(lp607
F7.602065884627873
aF-0.6635073106434862
aI34973
aa(lp608
F6.857919403727832
aF0.0368146469360513
aI8820
aa(lp609
F6.680670491587309
aF-0.23578555428927647
aI13843
aa(lp610
F82.51594755818473
aF-3.045048234388129
aI50000
aa(lp611
F7.040097364977994
aF-0.01819926469539775
aI11429
aa(lp612
F37.37155149367151
aF0.24711766393596876
aI50000
aa(lp613
F4.9851428648924845
aF0.3971432098091725
aI16869
aa(lp614
F1.0145138535207912
aF-0.24615541029051155
aI1303
aa(lp615
F2.3554483295934867
aF-0.23386053864712095
aI50000
aa(lp616
F3.302712047507279
aF-0.2500646725100903
aI4841
aa(lp617
F51.96932849741696
aF-5.413086275518291
aI50000
aa(lp618
F7.840070108306808
aF-0.6633556246302943
aI19874
aa(lp619
F6.443706036375882
aF0.6060451426964277
aI8391
aa(lp620
F2.013700342597616
aF0.07218470859845992
aI4545
aa(lp621
F7.932251830207093
aF-0.610330978831553
aI16722
aa(lp622
F0.0018387195368388268
aF-0.06668738816790536
aI242
aa(lp623
F84.73643788008945
aF-4.972645413147996
aI50000
aa(lp624
F0.08633226371477515
aF-0.21064972734888027
aI257
aa(lp625
F7.899723439131958
aF-0.3469973618893885
aI50000
aa(lp626
F77.58994606706104
aF-3.4688796246139946
aI50000
aa(lp627
F34.27198631487614
aF-1.4965792886959055
aI50000
aa(lp628
F0.088597881047503
aF0.1812365870123972
aI1404
aa(lp629
F2.9354062030177706
aF-0.32685980249313557
aI26887
aa(lp630
F44.45645542411943
aF-2.879810356872547
aI50000
aa(lp631
F1.8852092338385478
aF0.10288679095202347
aI6930
aa(lp632
F7.061908788150284
aF0.42824601529736966
aI50000
aa(lp633
F2.1151014366025205
aF-0.11131120330852821
aI1950
aa(lp634
F76.86152495502498
aF-4.013683431539395
aI50000
aa(lp635
F2.620531159855292
aF-0.15709467628032842
aI3988
aa(lp636
F3.771113111675582
aF0.02506545778626684
aI36832
aa(lp637
F7.822171154958451
aF-0.09635900628417106
aI50000
aa(lp638
F8.676350916004154
aF0.0682933956761607
aI14768
aa(lp639
F2.3307120104694867
aF-0.2214578637720413
aI50000
aa(lp640
F0.027109313173394153
aF0.2946677344804016
aI22195
aa(lp641
F6.2498898879930564
aF-0.6725053897002959
aI50000
aa(lp642
F0.9737205998927114
aF-0.07198089368304722
aI886
aa(lp643
F2.565931615347282
aF0.12836556945287492
aI4507
aa(lp644
F5.388602974645476
aF0.2615082460394487
aI10802
aa(lp645
F4.518379568491547
aF-0.2060025833846723
aI6164
aa(lp646
F4.260267014856993
aF0.2426234600152754
aI50000
aa(lp647
F1.4152240960648104
aF-0.13047568025947648
aI1217
aa(lp648
F3.7842885141270526
aF0.522361957832666
aI6417
aa(lp649
F0.9016096193156516
aF-0.316097443511837
aI1369
aa(lp650
F5.7926738947216405
aF0.08716357518195123
aI8219
aa(lp651
F6.787444960786629
aF-0.043432316369631865
aI8762
aa(lp652
F6.277298332988151
aF0.14232489586595645
aI6746
aa(lp653
F3.712422401932682
aF-0.26114207972067693
aI13256
aa(lp654
F1.849787751530843
aF0.12002416074788665
aI2248
aa(lp655
F7.026433663991471
aF-0.2503012872739187
aI7063
aa(lp656
F1.8199078757227913
aF-0.010980255008432633
aI3048
aa(lp657
F4.030766050409425
aF-0.3725365289706406
aI6244
aa(lp658
F-0.05401313384167644
aF-0.38919283600566934
aI177
aa(lp659
F7.933677746927676
aF0.26194816358354805
aI23579
aa(lp660
F7.258951291515912
aF-0.06951488697905195
aI50000
aa(lp661
F2.52141211283081
aF-0.5729349740506003
aI6609
aa(lp662
F78.70775118015521
aF-4.880298540447513
aI50000
aa(lp663
F0.11753149649752136
aF0.02039130989546948
aI2558
aa(lp664
F1.0610194235478865
aF0.03626668931207324
aI1774
aa(lp665
F0.6604427803060615
aF0.23121682148263062
aI703
aa(lp666
F4.114074054552914
aF0.2835435916039794
aI4437
aa(lp667
F7.034799818240421
aF-0.07157773092211056
aI15034
aa(lp668
F1.5274736689276271
aF-0.13490175663354054
aI2048
aa(lp669
F6.498751039944739
aF-0.05406440998375628
aI17384
aa(lp670
F1.3742921416440905
aF0.5485916365293851
aI4655
aa(lp671
F7.225218470637933
aF-0.002733498475182304
aI15145
aa(lp672
F0.8961974784285406
aF0.2782450905005483
aI6011
aa(lp673
F4.891984362258884
aF0.06340431526707373
aI5193
aa(lp674
F2.5491338225041753
aF0.2031735249149684
aI4578
aa(lp675
F3.8419061032722603
aF0.03346263078656767
aI4023
aa(lp676
F3.837690721968987
aF-0.014851349006702149
aI10604
aa(lp677
F3.3686761344018463
aF-0.015304218841598393
aI4419
aa(lp678
F2.345749048682482
aF-0.046053389466285934
aI4058
aa(lp679
F96.26411737500514
aF-5.049025407880237
aI50000
aa(lp680
F2.357488510503528
aF-0.10224451672605735
aI4414
aa(lp681
F1.5450640888432428
aF-0.14995447259080016
aI2281
aa(lp682
F1.1121703074525413
aF0.015557575787940025
aI695
aa(lp683
F1.79054863445549
aF0.13000383465549153
aI12729
aa(lp684
F1.2079920896529008
aF0.0801033599139255
aI2081
aa(lp685
F-0.05702544758630758
aF-0.04000886085111462
aI50000
aa(lp686
F6.762743997939011
aF0.006188545480199219
aI50000
aa(lp687
F4.840201051273497
aF-0.011755715105558822
aI5146
aa(lp688
F72.56336379828414
aF-5.568656212408217
aI50000
aa(lp689
F8.574559564807126
aF-0.34395342166824944
aI11443
aa(lp690
F2.0103682904887177
aF0.48780383534901234
aI4320
aa(lp691
F9.042497250705042
aF0.6085522450692984
aI15651
aa(lp692
F3.634861773895427
aF-0.006060182863315626
aI3361
aa(lp693
F5.90495764603401
aF-0.3912454584292436
aI22452
aa(lp694
F3.4164911451363476
aF-0.07757695310978262
aI4316
aa(lp695
F4.252717225823257
aF0.2528815426550498
aI50000
aa(lp696
F1.7877758732639721
aF-0.10707366985196679
aI10286
aa(lp697
F7.799532399715387
aF-0.6260693122015721
aI50000
aa(lp698
F65.05003287046266
aF-6.326960457907916
aI50000
aa(lp699
F1.756300672997879
aF0.11802595502197745
aI50000
aa(lp700
F5.56053228329325
aF-0.14154477713108427
aI9629
aa(lp701
F5.488350053586829
aF-0.6825652254412162
aI10496
aa(lp702
F2.010362430581158
aF0.24986125714639223
aI3475
aa(lp703
F1.902425712347753
aF-0.27261745580304747
aI1684
aa(lp704
F91.35978418176187
aF-4.809613211031941
aI50000
aa(lp705
F1.185259919336567
aF0.08734971539457777
aI1907
aa(lp706
F7.825158380886206
aF-0.7251213926196184
aI15616
aa(lp707
F0.5610486377870648
aF0.014015142933468972
aI648
aa(lp708
F81.12598617476505
aF-5.497658050694094
aI50000
aa(lp709
F3.6022407500146567
aF0.2790410672294053
aI3640
aa(lp710
F88.79709792914753
aF-6.03068749072358
aI50000
aa(lp711
F2.0931496372380027
aF0.10855726570701192
aI2225
aa(lp712
F6.227150039749723
aF-0.42627582856321505
aI8169
aa(lp713
F0.4630698440205448
aF-0.35997770646198557
aI5616
aa(lp714
F71.22406919136398
aF-4.71843289741232
aI50000
aa(lp715
F2.3808185391408085
aF-0.12642463137379545
aI2328
aa(lp716
F3.8185374418623654
aF-0.3784451247058369
aI8393
aa(lp717
F81.6924787158038
aF-3.4427984582593223
aI50000
aa(lp718
F4.099482580475117
aF0.10071565010537822
aI4147
aa(lp719
F1.8429010862410613
aF-0.0035691077877513444
aI13896
aa(lp720
F1.59486818654908
aF-0.1235328540037328
aI1934
aa(lp721
F4.072725437656012
aF-0.3005671354777649
aI6057
aa(lp722
F6.687183766947407
aF0.15763658614246648
aI26556
aa(lp723
F3.645731308279858
aF-0.08701248308693131
aI10474
aa(lp724
F8.47452116207852
aF0.1010352277500626
aI50000
aa(lp725
F3.9006635756050714
aF0.1307071469349844
aI6344
aa(lp726
F1.992634461328916
aF-0.27565422269308615
aI2207
aa(lp727
F1.4712767009691936
aF-0.054172872766372414
aI50000
aa(lp728
F0.24822271501548213
aF0.11317495710402121
aI1174
aa(lp729
F0.029702214075018885
aF-0.15489652466736578
aI128
aa(lp730
F87.7387058297847
aF-7.94654971729396
aI50000
aa(lp731
F0.5225472513977988
aF-0.20148121567497287
aI50000
aa(lp732
F89.53122046086877
aF-8.650203630181194
aI50000
aa(lp733
F6.054864509517785
aF-0.5967780596718383
aI7797
aa(lp734
F3.641266966589496
aF-0.47073140623885346
aI3057
aa(lp735
F7.0629985012261
aF0.37610260290506
aI20582
aa(lp736
F2.7941695822544697
aF-0.1561592913254663
aI2391
aa(lp737
F4.841415985357141
aF-0.5965132001185136
aI50000
aa(lp738
F1.6983433495222293
aF0.04259025813777801
aI1904
aa(lp739
F0.8019814762023612
aF0.02309300068218621
aI2532
aa(lp740
F0.9125775937536977
aF-0.16021375309664931
aI799
aa(lp741
F0.08847468680014034
aF-0.08230595838195064
aI45
aa(lp742
F78.95211959199865
aF-2.7597948187640737
aI50000
aa(lp743
F6.695700279250813
aF-0.9037984611552634
aI27683
aa(lp744
F7.132747776060546
aF-0.3831831713645223
aI13176
aa(lp745
F1.4995966662244111
aF-0.059791783866336504
aI50000
aa(lp746
F2.329777808730791
aF-0.22237429630231212
aI50000
aa(lp747
F4.462378202238272
aF-0.30645202956008327
aI20063
aa(lp748
F0.41147104977221716
aF-0.2764620956766661
aI2778
aa(lp749
F5.493730921897208
aF0.004015406614683834
aI14610
aa(lp750
F1.199912517845975
aF0.03989240087698076
aI1874
aa(lp751
F79.97591580343283
aF-6.84755760350198
aI50000
aa(lp752
F3.6054737739722484
aF0.013376875272474465
aI7264
aa(lp753
F7.840637276667966
aF0.4179326674664696
aI50000
aa(lp754
F5.73703252366291
aF0.35716552420245123
aI20410
aa(lp755
F3.232783439737687
aF-0.17180031132504256
aI6085
aa(lp756
F4.610650667349173
aF-0.6573354354281962
aI11323
aa(lp757
F6.801025667076962
aF0.5154788779215851
aI11322
aa(lp758
F5.238510700212903
aF0.2576711668086839
aI4621
aa(lp759
F2.511624792475893
aF-0.49944807486844234
aI6318
aa(lp760
F7.2092186397764735
aF-0.5995535128206702
aI10668
aa(lp761
F5.433718194248605
aF0.1765823569000147
aI7674
aa(lp762
F9.29213785200844
aF-0.1725386783919739
aI16698
aa(lp763
F0.05958263276781044
aF0.03926306986777232
aI50000
aa(lp764
F3.696909175256219
aF-0.1359453392571951
aI6385
aa(lp765
F0.11510435797962877
aF-0.04530747404202386
aI52
aa(lp766
F8.996031875455596
aF-0.7185886663165129
aI16018
aa(lp767
F4.137372834677708
aF-0.12963486015623873
aI5076
aa(lp768
F5.097343298257363
aF0.14879793343953296
aI19749
aa(lp769
F1.9074790663703074
aF0.12566440568488216
aI2066
aa(lp770
F3.7410390174113926
aF-0.19198947395833058
aI7643
aa(lp771
F3.1829281362589685
aF0.343944809510191
aI50000
aa(lp772
F4.381184578701644
aF-0.5257313621161874
aI50000
aa(lp773
F0.7269200593718115
aF0.31550811050730654
aI1948
aa(lp774
F92.89857899490553
aF-6.497426258775022
aI50000
aa(lp775
F1.3914015716229022
aF-0.017770140034156365
aI1112
aa(lp776
F4.2105363226450025
aF-0.16295803787381696
aI3941
aa(lp777
F76.48257888602402
aF-3.6801891245914033
aI50000
aa(lp778
F3.4502593577700895
aF0.3452696924837475
aI4053
aa(lp779
F1.7953115321304367
aF0.11174494003799607
aI1989
aa(lp780
F4.967384129842458
aF0.1563416111010604
aI5618
aa(lp781
F6.430136921166967
aF0.5798608442671888
aI11177
aa(lp782
F0.8372724426457396
aF-0.08503580206009066
aI794
aa(lp783
F1.340655206388246
aF-0.003984566865567302
aI1865
aa(lp784
F2.272193442013812
aF-0.4793634039678931
aI3007
aa(lp785
F0.02180114047959768
aF0.017467577032572984
aI50000
aa(lp786
F4.133706075217218
aF0.3611012471909316
aI4290
aa(lp787
F2.4477736784272404
aF0.23626673107066434
aI4600
aa(lp788
F1.6551947105631433
aF-0.015069658574780752
aI1179
aa(lp789
F1.9541130364962047
aF-0.3296392933361853
aI3077
aa(lp790
F0.6286892835764015
aF-0.11139401797751478
aI699
aa(lp791
F2.0552377362085434
aF0.1595858215284558
aI2646
aa(lp792
F5.832251085367185
aF-0.4398965762695121
aI9274
aa(lp793
F1.4990432604201325
aF0.22857195388017007
aI50000
aa(lp794
F2.054346212169345
aF0.23088582455640685
aI18475
aa(lp795
F0.9684489583987245
aF0.07984273120306176
aI2105
aa(lp796
F3.467728164484961
aF0.19227099524766064
aI3916
aa(lp797
F0.509529393917275
aF0.01069506456846355
aI729
aa(lp798
F3.477266673809373
aF0.28493426819867024
aI39887
aa(lp799
F6.329460416596509
aF-0.35866488668432644
aI10878
aa(lp800
F54.18366025227723
aF-3.7101660258097096
aI50000
aa(lp801
F4.294977631185432
aF-0.17231684424856406
aI6297
aa(lp802
F1.835233071102323
aF-0.202891405463552
aI1783
aa(lp803
F1.468727924785138
aF0.0929069536954093
aI18726
aa(lp804
F4.347953777811873
aF-0.0722890584605159
aI6731
aa(lp805
F4.193535852027975
aF-0.15034570684645002
aI4386
aa(lp806
F8.020302646090542
aF-0.6451105528829957
aI13681
aa(lp807
F3.2903452537658384
aF-0.46055281364389944
aI4480
aa(lp808
F1.5608215065142614
aF-0.18966171903946602
aI1557
aa(lp809
F2.888618538836548
aF0.00879978245184644
aI8735
aa(lp810
F76.49574643561765
aF-4.835843513164576
aI50000
aa(lp811
F3.8896179697100175
aF0.08733684609311589
aI5987
aa(lp812
F2.704635808497156
aF-0.3147665540427906
aI25138
aa(lp813
F1.9753381532727239
aF0.3535727335209463
aI5682
aa(lp814
F8.124736596883238
aF-0.134646207961714
aI23636
aa(lp815
F100.09029036766746
aF-12.198417158271035
aI49995
aa(lp816
F4.880567042758809
aF-0.11799621610858822
aI5811
aa(lp817
F2.0834456909289707
aF0.0390766785905963
aI50000
aa(lp818
F74.69141806131051
aF-7.572691451777884
aI50000
aa(lp819
F77.21429374652925
aF-6.18322594624366
aI50000
aa(lp820
F0.9323871565041081
aF-0.012467110861575557
aI4113
aa(lp821
F2.251012779222891
aF0.37755600523909094
aI3443
aa(lp822
F1.5236380491600086
aF0.32223775694789797
aI1497
aa(lp823
F7.200865198355909
aF-0.13906644866293832
aI12536
aa(lp824
F6.061296775161555
aF-0.5375113404751987
aI10559
aa(lp825
F5.086515120117167
aF0.2735903286591092
aI20320
aa(lp826
F7.712961555832191
aF0.6969111462122366
aI14362
aa(lp827
F5.0129328237645705
aF0.3116450760186184
aI50000
aa(lp828
F6.102866876256659
aF0.04092806897711824
aI5891
aa(lp829
F87.30457612625953
aF-2.4667314214243596
aI50000
aa(lp830
F82.44457265371541
aF-4.9304780372094505
aI50000
aa(lp831
F0.08488337788581232
aF0.14241285246623334
aI538
aa(lp832
F6.746184377653049
aF0.3326423903231318
aI6923
aa(lp833
F7.067114705154957
aF0.03423679213571841
aI9830
aa(lp834
F0.04172204812896283
aF0.0026821884180095817
aI50000
aa(lp835
F1.6591717249043958
aF-0.3706176680733346
aI50000
aa(lp836
F1.4773821554261304
aF-0.07904987275870268
aI1522
aa(lp837
F7.614553115793078
aF0.09849734412878317
aI21188
aa(lp838
F1.397111015084378
aF-0.019499258351332583
aI1615
aa(lp839
F0.14490061783593575
aF0.18900027827913868
aI4977
aa(lp840
F7.97417106250821
aF-0.6259929614629112
aI23288
aa(lp841
F3.939185877835951
aF-0.03792085253302245
aI5467
aa(lp842
F0.53846684420658
aF-0.23805275573212747
aI333
aa(lp843
F57.39803323033514
aF-4.577521085779076
aI50000
aa(lp844
F83.83894942234495
aF-7.4712282257289475
aI50000
aa(lp845
F3.781240645443496
aF0.38351109336525036
aI9650
aa(lp846
F66.18493072494866
aF-1.9980960095614972
aI50000
aa(lp847
F4.031137906761757
aF0.12451392795664891
aI5214
aa(lp848
F78.1161239789363
aF0.9067147593677001
aI50000
aa(lp849
F3.3661940460412083
aF0.03717030878175016
aI50000
aa(lp850
F6.837473819884615
aF-0.07340557907151572
aI21521
aa(lp851
F0.16219082340444066
aF0.06126657349298243
aI1296
aa(lp852
F3.8043595645096535
aF-0.007658058661722317
aI3621
aa(lp853
F0.9747690749690721
aF-0.020477838684040715
aI1074
aa(lp854
F6.991654991728121
aF-0.04635389925486841
aI25262
aa(lp855
F6.828687602111596
aF0.5022154081881952
aI11912
aa(lp856
F5.40144809230134
aF0.07996664079247455
aI7706
aa(lp857
F4.810204609744343
aF0.24204786299983921
aI50000
aa(lp858
F7.329715257870227
aF-0.17270378610159468
aI13943
aa(lp859
F3.71970220244127
aF-0.07910419615690849
aI3945
aa(lp860
F1.586632637039279
aF0.15344593543320925
aI3644
aa(lp861
F1.600212918152083
aF-0.21897511908257966
aI1815
aa(lp862
F7.110027444149193
aF-0.13711903633677786
aI13544
aa(lp863
F1.8666504810773552
aF-0.012042494439493952
aI50000
aa(lp864
F91.4932819577804
aF-7.076499626388877
aI50000
aa(lp865
F80.9597416663873
aF-7.479626888518417
aI50000
aa(lp866
F7.981380842028358
aF-0.6094553052861592
aI13037
aa(lp867
F5.884591774676975
aF0.39992650372460853
aI4453
aa(lp868
F7.280652990227626
aF-0.24234996630859143
aI12235
aa(lp869
F86.1596147234079
aF-9.329589049725886
aI50000
aa(lp870
F5.8370163215107755
aF0.11391218609382778
aI9900
aa(lp871
F7.861077978503189
aF-0.7065199722776692
aI12014
aa(lp872
F91.86815058117935
aF-6.261036376882513
aI50000
aa(lp873
F2.0962935461589294
aF0.1876175247613943
aI2555
aa(lp874
F1.812487306765388
aF-0.25741682296719054
aI5084
aa(lp875
F57.485163407124794
aF-5.279597184592111
aI50000
aa(lp876
F84.5763133879382
aF-7.300433516104358
aI50000
aa(lp877
F1.4944456363421745
aF0.11287413681233366
aI1510
aa(lp878
F6.98524021750962
aF0.1083001335413728
aI7707
aa(lp879
F5.238662274394328
aF-0.18779070927509212
aI17581
aa(lp880
F5.384705698610017
aF-0.05556497513272411
aI7372
aa(lp881
F0.0665661436384531
aF0.10751943517990456
aI50000
aa(lp882
F0.38478182244263576
aF0.07974166864676273
aI648
aa(lp883
F6.766270452500497
aF-0.571142242418261
aI11071
aa(lp884
F54.86854403734625
aF-4.410610641499495
aI50000
aa(lp885
F0.21241331372113895
aF0.4072285301054412
aI20187
aa(lp886
F1.9640648819950994
aF-0.3226374581785512
aI50000
aa(lp887
F4.101809474495327
aF-0.4797348666681058
aI8784
aa(lp888
F1.6491390351716173
aF0.035641741282311824
aI1675
aa(lp889
F1.5431799522047256
aF-0.08077765762332517
aI1267
aa(lp890
F0.40760656187441724
aF-0.006656088011170234
aI50000
aa(lp891
F0.4027256458751231
aF-0.013180182832063179
aI596
aa(lp892
F16.277358433870628
aF-0.21116763593203725
aI50000
aa(lp893
F6.847495467447613
aF-0.4068199432245688
aI12823
aa(lp894
F6.687120592515103
aF-0.2206106736182558
aI8183
aa(lp895
F1.666438040673237
aF0.045670353661808966
aI3444
aa(lp896
F3.9593921092162314
aF0.10189769065542721
aI16140
aa(lp897
F5.431655257788639
aF0.06560532087638139
aI50000
aa(lp898
F1.0707707321194297
aF0.03160093528155021
aI2150
aa(lp899
F0.40506911033881565
aF-0.12023909389712156
aI50000
aa(lp900
F3.6673170558498156
aF-0.25981868729863916
aI9328
aa(lp901
F5.490194385337655
aF0.24517928127113386
aI6431
aa(lp902
F43.01729689332075
aF-1.902646071166544
aI50000
aa(lp903
F0.6009866758300677
aF0.08073448607808345
aI50000
aa(lp904
F1.4823139028990804
aF0.07269536176814333
aI50000
aa(lp905
F7.152419808940973
aF-0.5218225540455306
aI12154
aa(lp906
F4.382665484287015
aF0.22696340764221384
aI32164
aa(lp907
F7.199279191932765
aF0.298739338375485
aI12660
aa(lp908
F67.25014475124277
aF-4.038257418960292
aI50000
aa(lp909
F2.2579483537319875
aF-0.011166978953051302
aI5786
aa(lp910
F74.75798390802699
aF-7.397288908577087
aI50000
aa(lp911
F2.6660817160470955
aF-0.12860734163633825
aI4226
aa(lp912
F5.219931306898936
aF0.21943485839457236
aI10380
aa(lp913
F5.206482238145629
aF-0.0027270883627714395
aI9488
aa(lp914
F3.981650761944316
aF-0.18834769560396256
aI50000
aa(lp915
F1.4926511218595815
aF-0.11219517673288583
aI1590
aa(lp916
F0.8767321595239401
aF0.24113287928781385
aI1459
aa(lp917
F5.853353946885918
aF-0.48134930978453144
aI9062
aa(lp918
F5.778093257216195
aF-0.5434459631722818
aI6667
aa(lp919
F6.890863640021464
aF-0.013714983886563233
aI38736
aa(lp920
F2.075178083591439
aF0.1824273057566895
aI2440
aa(lp921
F1.6476996156838029
aF0.2209639102595807
aI1455
aa(lp922
F3.035665011408639
aF-0.06313325847213438
aI50000
aa(lp923
F1.9697551126552744
aF0.10162464150331581
aI2192
aa(lp924
F3.7016182953305776
aF-0.28621502852319325
aI14159
aa(lp925
F7.235736962396638
aF0.07749976356209659
aI50000
aa(lp926
F6.19168442298485
aF-0.4469115625601329
aI25557
aa(lp927
F8.618330898547812
aF0.11880127253137053
aI16164
aa(lp928
F7.75661820584833
aF0.513057322507863
aI50000
aa(lp929
F3.263939777385972
aF-0.1689121534797867
aI4793
aa(lp930
F0.000717171388294224
aF-0.0629214817053576
aI50000
aa(lp931
F2.4391580768119407
aF-0.5235463177916011
aI9222
aa(lp932
F0.09744582770700343
aF0.14412919451962714
aI79
aa(lp933
F1.8030959646318492
aF-0.08119387185649178
aI50000
aa(lp934
F6.685982045755565
aF0.03172857740027626
aI50000
aa(lp935
F1.4862428607646283
aF0.11147193346148529
aI1334
aa(lp936
F5.048869126522567
aF-0.4567317046094922
aI13573
aa(lp937
F8.679820781913335
aF0.36357659356589556
aI50000
aa(lp938
F0.49994194699527217
aF0.03513702868060184
aI406
aa(lp939
F5.234765873513876
aF-0.10494909925448709
aI13105
aa(lp940
F3.8234312037068596
aF0.06207888413209245
aI3563
aa(lp941
F7.940642988049699
aF-0.5970339217780712
aI10616
aa(lp942
F90.56868615038353
aF-8.457379337375059
aI50000
aa(lp943
F5.035992228031642
aF0.2417162837905201
aI13273
aa(lp944
F0.4103020231976471
aF-0.04690002068859731
aI1502
aa(lp945
F84.04381504790209
aF-3.1267989197271686
aI50000
aa(lp946
F7.881128743757081
aF-0.022085951153996464
aI32803
aa(lp947
F0.8940656835557383
aF-0.11702618795678082
aI50000
aa(lp948
F1.7304641938589775
aF-0.006787277796786118
aI2858
aa(lp949
F8.989343426724826
aF0.2908367654969914
aI12556
aa(lp950
F83.22860401923612
aF-6.7432334145598585
aI50000
aa(lp951
F6.611052511927172
aF-0.5838940508739822
aI11102
aa(lp952
F2.1001330392067246
aF0.28350465756042736
aI3711
aa(lp953
F7.122660215265412
aF-0.030309396816365585
aI25995
aa(lp954
F2.940314925601629
aF-0.20807017307681192
aI2198
aa(lp955
F7.5776955922180935
aF-0.90439194121107
aI50000
aa(lp956
F2.4632818017609805
aF-0.22201968991882803
aI2058
aa(lp957
F2.793753462188991
aF-0.25568029064675424
aI2556
aa(lp958
F1.3495132871582058
aF-0.06539211606397528
aI1531
aa(lp959
F1.8942993595357571
aF0.0873559978436755
aI50000
aa(lp960
F83.18710209000132
aF0.5826630652607526
aI50000
aa(lp961
F85.38644759827574
aF-5.404199856381306
aI50000
aa(lp962
F82.6616699497993
aF-7.272738751619189
aI50000
aa(lp963
F78.65167167990754
aF-2.434429158824215
aI50000
aa(lp964
F4.344547812020614
aF-0.24723840715598824
aI15328
aa(lp965
F83.06103458953697
aF-1.440474601608354
aI50000
aa(lp966
F2.0019715906935573
aF0.15640475843327678
aI3542
aa(lp967
F3.9753628719857512
aF-0.5226640761695754
aI19960
aa(lp968
F1.724485887441965
aF-0.10835668581308203
aI1188
aa(lp969
F0.4193776760298173
aF-0.02950215367080399
aI1590
aa(lp970
F82.13690219199636
aF-4.899943529946277
aI50000
aa(lp971
F0.0025086167815122073
aF0.11575503652931207
aI50000
aa(lp972
F2.193408138840872
aF0.05589429368958322
aI2515
aa(lp973
F1.2733991796491337
aF0.08341486565546123
aI983
aa(lp974
F3.5373236778660617
aF-0.15965269620941833
aI3102
aa(lp975
F4.777885674707016
aF0.057878978308648826
aI5472
aa(lp976
F7.046633780488868
aF0.08566555787681669
aI12579
aa(lp977
F0.4601737051312747
aF0.007778872751112026
aI373
aa(lp978
F-0.03482813174544994
aF-0.07654879511878201
aI431
aa(lp979
F2.104786880766094
aF-0.13093134100406023
aI3189
aa(lp980
F57.295863621502335
aF-1.5356340258088115
aI50000
aa(lp981
F3.2367874164839727
aF-0.19268503675488194
aI3285
aa(lp982
F0.4439052089692824
aF-0.08215556918176602
aI50000
aa(lp983
F1.8241482435220655
aF0.0998056518254846
aI3507
aa(lp984
F3.163935495708654
aF-0.29523491330461477
aI50000
aa(lp985
F55.38695275266908
aF-3.046095630779139
aI50000
aa(lp986
F1.402690002177
aF-0.3599606323518386
aI1678
aa(lp987
F52.205322366132435
aF-2.839941971546606
aI50000
aa(lp988
F1.8833173490128599
aF-0.06721115445011437
aI5125
aa(lp989
F1.5816640090180418
aF0.30865992139030735
aI28383
aa(lp990
F6.946391180440918
aF0.006819413102887126
aI11695
aa(lp991
F5.021965571978683
aF-0.25004864439534336
aI8654
aa(lp992
F5.3307391174105225
aF-0.02167196561135285
aI5302
aa(lp993
F1.6112314522723252
aF-0.15270810878528518
aI50000
aa(lp994
F6.977464017805416
aF0.053793403390653645
aI50000
aa(lp995
F7.920445081570521
aF0.09578700443590663
aI10863
aa(lp996
F0.19488687563878257
aF-0.175649824488309
aI50000
aa(lp997
F93.58997489127825
aF-10.71244297250801
aI50000
aa(lp998
F2.059844746806479
aF-0.11083624379124223
aI50000
aa(lp999
F6.063402761077913
aF0.49164705007274323
aI11168
aa(lp1000
F0.22666831374109345
aF-0.09310732301398027
aI443
aa.