(lp0
(lp1
F0.45049334733633184
aF-0.15592780599296208
aI340
aa(lp2
F2.021946982529693
aF-0.2052518045859321
aI1588
aa(lp3
F0.25648696409314853
aF-0.11576647504555206
aI194
aa(lp4
F0.2988721119537385
aF0.1391382303764616
aI273
aa(lp5
F0.7747624704355341
aF-0.39671759643813015
aI725
aa(lp6
F0.8614104186729159
aF0.20158710970924687
aI823
aa(lp7
F0.3310601410427225
aF-0.051514079930904635
aI433
aa(lp8
F1.3651944684893367
aF-0.203307095652404
aI1221
aa(lp9
F0.40912540069852354
aF-0.30172213308179335
aI357
aa(lp10
F0.7626040444851829
aF-0.0546672514844649
aI533
aa(lp11
F0.48032177099695067
aF-0.19247645956419338
aI339
aa(lp12
F0.8259271168920246
aF0.2813269519913768
aI1047
aa(lp13
F0.8838849486155639
aF-0.2689244708668967
aI770
aa(lp14
F0.7101956963238562
aF0.1590650786040896
aI782
aa(lp15
F0.79706735781869
aF0.06260770581134988
aI1218
aa(lp16
F0.22990969133560624
aF-0.16752839132680877
aI332
aa(lp17
F1.5969381002104728
aF0.20589930597766065
aI1822
aa(lp18
F0.32555774257428105
aF0.134137749817834
aI503
aa(lp19
F2.4600698105591747
aF-0.11626943552898035
aI2586
aa(lp20
F0.5042259431027971
aF-0.21416269241166383
aI386
aa(lp21
F0.4550878285355487
aF-0.18895931562645496
aI475
aa(lp22
F3.2225405970590146
aF0.08308714043998565
aI3634
aa(lp23
F-0.004885771625015543
aF0.25715327836863866
aI315
aa(lp24
F0.23186841729902105
aF-0.16328770769254192
aI469
aa(lp25
F1.1274721676882218
aF0.22818451943606582
aI1514
aa(lp26
F2.594159981495321
aF-0.06869599061220695
aI2297
aa(lp27
F0.13190413761478803
aF-0.2978425172346675
aI308
aa(lp28
F0.7706576641268652
aF0.1928203575359666
aI641
aa(lp29
F0.9713853546808473
aF0.14261667826531677
aI830
aa(lp30
F0.30814708201086394
aF-0.16530412073936296
aI330
aa(lp31
F0.7070412059245511
aF0.28676067433156727
aI734
aa(lp32
F0.44043799289174373
aF-0.1459033873114978
aI659
aa(lp33
F0.2974856117530633
aF-0.17967317251655368
aI302
aa(lp34
F0.9551883973203857
aF0.18629143214904614
aI913
aa(lp35
F0.7127065785151803
aF0.14533920121592908
aI468
aa(lp36
F0.21283270094800383
aF-0.17051138372076385
aI132
aa(lp37
F0.9022235765205568
aF0.22609600242376343
aI883
aa(lp38
F1.1970112492708342
aF0.010870327345728799
aI1146
aa(lp39
F1.1608029822401982
aF-0.12317648219437329
aI1057
aa(lp40
F0.07594402877388831
aF-0.23630255650747733
aI200
aa(lp41
F0.5994308299677913
aF0.5947467288781657
aI549
aa(lp42
F1.0841169732892306
aF-0.2247541982872491
aI994
aa(lp43
F0.09033490327167154
aF-0.20181815337835585
aI251
aa(lp44
F0.37313685817237463
aF-0.19133085644963338
aI221
aa(lp45
F0.2873333362763731
aF0.1653073696513306
aI458
aa(lp46
F0.5847606400273617
aF-0.010973371207499014
aI400
aa(lp47
F0.36366502335142614
aF-0.1799361480457802
aI216
aa(lp48
F1.3564938320672464
aF-0.12940499576950348
aI1055
aa(lp49
F0.6272207447378979
aF0.1903168357880903
aI569
aa(lp50
F1.1076248531267359
aF0.1347688899461871
aI1088
aa(lp51
F1.2930830999497245
aF-0.10445634544729548
aI943
aa(lp52
F1.1211261811311801
aF0.1835447855160998
aI930
aa(lp53
F0.44465719573170837
aF-0.08294877058742114
aI791
aa(lp54
F0.5092768848804906
aF-0.1543327751000375
aI693
aa(lp55
F0.085661295756703
aF-0.05421659125916637
aI413
aa(lp56
F0.2710184910888622
aF0.14713578084261006
aI329
aa(lp57
F1.0863238007351748
aF0.6685402350151448
aI1124
aa(lp58
F0.8236027619890717
aF-0.010783536823181762
aI625
aa(lp59
F0.6033708359762645
aF-0.1090027530647955
aI1272
aa(lp60
F2.10402870582978
aF-0.041276060773876216
aI1374
aa(lp61
F1.1612454489923836
aF0.07524776327413005
aI846
aa(lp62
F0.3881707877059629
aF-0.18453693903698495
aI435
aa(lp63
F1.3934785603421598
aF0.46696210074838085
aI1331
aa(lp64
F0.13780698715809575
aF-0.20035971724954563
aI208
aa(lp65
F1.881583813452451
aF-0.1585594542537901
aI3261
aa(lp66
F0.9137085039387218
aF0.05650974230977799
aI926
aa(lp67
F1.110627401012467
aF-0.01731165196174016
aI880
aa(lp68
F0.1432379689137918
aF0.23905606036706245
aI441
aa(lp69
F0.917413257006712
aF0.13637642860544724
aI1214
aa(lp70
F0.5639278651736082
aF0.14357349205268918
aI427
aa(lp71
F0.4214156135937348
aF-0.2497301789063528
aI384
aa(lp72
F1.736967623259526
aF-0.15155232920831976
aI1340
aa(lp73
F0.5719133954673389
aF-0.17351761650480155
aI361
aa(lp74
F0.08347008727450042
aF-0.37424815289770674
aI170
aa(lp75
F0.17173025190044724
aF0.39571759278362517
aI625
aa(lp76
F1.6205381785058321
aF-0.4161429777489973
aI1509
aa(lp77
F2.3590431799754232
aF-0.07531874652782204
aI1941
aa(lp78
F0.9510303265493458
aF-0.045327535364045254
aI763
aa(lp79
F1.8035287625506973
aF-0.24235799450671713
aI2084
aa(lp80
F0.40608744512032485
aF-0.013363712599012173
aI873
aa(lp81
F0.8311229316063324
aF0.235863655995525
aI720
aa(lp82
F1.000351894735674
aF-0.3758023117126148
aI740
aa(lp83
F0.3586016967657881
aF0.31278668396325127
aI568
aa(lp84
F0.6833652367337909
aF0.27034833475833264
aI527
aa(lp85
F0.20696210871876156
aF-0.20976550984539633
aI204
aa(lp86
F0.2398487662919539
aF0.19363879287854668
aI220
aa(lp87
F0.9552773281454653
aF-0.032573634440944535
aI1001
aa(lp88
F-0.0496448698532231
aF-0.07585965549682824
aI323
aa(lp89
F3.153832345009586
aF0.20142140737087058
aI3237
aa(lp90
F0.7205119427595887
aF0.018332673088472744
aI671
aa(lp91
F1.6067130042392976
aF-0.1440550526076864
aI1266
aa(lp92
F0.19931478451338774
aF0.20116861782552942
aI1110
aa(lp93
F0.7311247525140664
aF0.08747737584254098
aI563
aa(lp94
F0.2906716808660578
aF-0.17072692869346787
aI169
aa(lp95
F0.8030881125987571
aF0.13238219208258947
aI880
aa(lp96
F0.9046852533621758
aF0.06775353842493553
aI513
aa(lp97
F1.2567973450493306
aF-0.24342941229250256
aI1122
aa(lp98
F1.7385243089440248
aF0.09781024834697243
aI1581
aa(lp99
F0.8458648250474038
aF-0.11196037443826444
aI979
aa(lp100
F0.2516460579683038
aF0.1085168205637147
aI401
aa(lp101
F0.22026445825575164
aF-0.32883490225704504
aI348
aa(lp102
F1.1211124047031433
aF0.1931095894996138
aI732
aa(lp103
F2.1811127409389455
aF-0.18464813129068997
aI2520
aa(lp104
F0.33352111872643947
aF-0.06521035979091211
aI219
aa(lp105
F0.30460991143544286
aF-0.11468410385579429
aI318
aa(lp106
F0.09503092226493377
aF0.18232083690190637
aI259
aa(lp107
F0.19762930164190587
aF-0.15017944786965098
aI86
aa(lp108
F0.4001714043589267
aF-0.15670618389020521
aI542
aa(lp109
F0.012826277572166611
aF0.3818478684967794
aI461
aa(lp110
F0.8125257245392616
aF0.08116407014460064
aI572
aa(lp111
F0.022682844613061838
aF-0.2704784479683401
aI162
aa(lp112
F1.498299933799584
aF-0.27673795354760317
aI1206
aa(lp113
F0.9303868943600367
aF0.1545682807191159
aI904
aa(lp114
F0.8416308531240722
aF-0.31125782825741305
aI630
aa(lp115
F0.6357446013093829
aF0.2029864085900415
aI456
aa(lp116
F2.0366785741347524
aF0.17374431691682415
aI1470
aa(lp117
F0.7440427077847329
aF0.07286959190873141
aI991
aa(lp118
F1.3919896722168876
aF-0.1288045726133664
aI1155
aa(lp119
F1.3189361451811017
aF-0.4256772792285226
aI865
aa(lp120
F0.09329519565340942
aF-0.23236609406233946
aI196
aa(lp121
F0.21280024651986448
aF-0.1968885170532827
aI183
aa(lp122
F0.9109400755952735
aF0.1641753308046739
aI862
aa(lp123
F0.6075999426804525
aF0.12730067357694558
aI747
aa(lp124
F1.3058010999683676
aF0.048535368651176795
aI1070
aa(lp125
F1.3026400235179125
aF-0.35682863853743507
aI883
aa(lp126
F0.09002641176040482
aF0.00528372065640416
aI243
aa(lp127
F1.0304568941528374
aF-0.17357678279105523
aI1024
aa(lp128
F0.47589641018714385
aF0.20254833013597287
aI379
aa(lp129
F0.2311679472753488
aF0.22554758418335197
aI256
aa(lp130
F0.08590643807286373
aF0.28404207194853476
aI611
aa(lp131
F0.919370681801115
aF0.2247874407794589
aI590
aa(lp132
F0.04399490526708685
aF-0.210021448458694
aI81
aa(lp133
F0.7082799724536343
aF0.13887302943712687
aI659
aa(lp134
F0.2515675800424216
aF-0.15949242809130204
aI328
aa(lp135
F0.028765001886348122
aF-0.14216055650457546
aI154
aa(lp136
F0.1581190192216704
aF-0.15123418900939975
aI156
aa(lp137
F2.149209858679442
aF0.11517232124044327
aI2132
aa(lp138
F0.39824895810065314
aF0.17288135062787305
aI694
aa(lp139
F0.08877134125004102
aF-0.20812632190772895
aI203
aa(lp140
F1.111081059957371
aF-0.11040766877749508
aI901
aa(lp141
F1.4027659569353585
aF-0.12304018619205608
aI1334
aa(lp142
F0.8602447297230226
aF-0.16101785498642407
aI1140
aa(lp143
F0.1802472025911824
aF-0.1766259521092709
aI148
aa(lp144
F0.3919388622221912
aF-0.27639691787407433
aI373
aa(lp145
F0.5675977201862923
aF-0.058787116336074446
aI376
aa(lp146
F0.11535881922009096
aF-0.20260943098596884
aI191
aa(lp147
F1.8125934833835107
aF-0.19018104182467474
aI1299
aa(lp148
F0.39947871129410323
aF-0.28655076192789974
aI397
aa(lp149
F0.11847224397515622
aF0.1806036194176508
aI330
aa(lp150
F0.8411166854529492
aF0.32096280595103316
aI1721
aa(lp151
F2.211444318158263
aF0.2369034971643197
aI1844
aa(lp152
F0.5812162274794761
aF-0.104292300387966
aI454
aa(lp153
F1.227512965257069
aF-0.10513000383376238
aI1137
aa(lp154
F1.1532457271940875
aF-0.010279774313366147
aI963
aa(lp155
F1.1765684603150683
aF-0.1285256935963572
aI826
aa(lp156
F-0.047953753552749716
aF-0.22655332082068566
aI146
aa(lp157
F0.1652796614200413
aF-0.25791963428760367
aI136
aa(lp158
F0.2986017577021123
aF0.19503736128648058
aI373
aa(lp159
F0.4215181257069209
aF-0.019096000001659095
aI183
aa(lp160
F0.9633878330521388
aF-0.41234981746089594
aI1112
aa(lp161
F-0.013507632073362927
aF0.305595416922863
aI240
aa(lp162
F-0.0870567744309079
aF-0.16510248387506943
aI187
aa(lp163
F1.4800959682405492
aF0.16498052201555918
aI1618
aa(lp164
F0.21099287398570388
aF-0.3000883063156815
aI227
aa(lp165
F0.13109708795368552
aF-0.22294046995646752
aI135
aa(lp166
F0.38142863987282377
aF0.12744975272573197
aI299
aa(lp167
F1.229883040096897
aF-0.0204535882787342
aI933
aa(lp168
F-0.13751000739403163
aF0.0773030788699359
aI285
aa(lp169
F1.4530793706045348
aF-0.08578931426681906
aI950
aa(lp170
F0.2816112183890395
aF0.2070535411969558
aI273
aa(lp171
F1.4130985122211719
aF-0.043403385791897495
aI1447
aa(lp172
F0.800545736405484
aF0.13290457678278494
aI685
aa(lp173
F0.5877288730301068
aF-0.1104200709087505
aI1377
aa(lp174
F0.2737751670085498
aF-0.44665063134901895
aI516
aa(lp175
F0.13092628586180083
aF-0.15114520013441426
aI283
aa(lp176
F0.6831633703117647
aF0.1324279456189538
aI544
aa(lp177
F0.35644022634551864
aF-0.13161459444666052
aI478
aa(lp178
F0.603927989125554
aF-0.11979430936143949
aI699
aa(lp179
F0.5359517830390493
aF0.06688552552430903
aI437
aa(lp180
F0.2508701091539635
aF-0.14582313535888292
aI425
aa(lp181
F0.4816388254724037
aF0.21091164419177622
aI2016
aa(lp182
F1.8715172959840225
aF-0.042274616058504993
aI1493
aa(lp183
F1.5215867113561572
aF0.18044169998598295
aI1337
aa(lp184
F0.7066949020637645
aF0.05030073053057882
aI471
aa(lp185
F1.2650929157046489
aF0.11525810062535174
aI1106
aa(lp186
F1.2416292019414494
aF0.023741683919047903
aI1154
aa(lp187
F1.0626362511217655
aF0.18694934137140398
aI1158
aa(lp188
F2.319282893782515
aF-0.052464374800289294
aI1750
aa(lp189
F1.0239711518788235
aF0.21386068150725815
aI707
aa(lp190
F0.1536692672664906
aF-0.1041530585442947
aI145
aa(lp191
F1.7854517574458337
aF-0.13153721578297456
aI1268
aa(lp192
F1.3265759235597676
aF0.18932643396183121
aI1378
aa(lp193
F2.1872474557214248
aF0.11542530640069795
aI2071
aa(lp194
F1.315978137693565
aF-0.5195762529633939
aI1388
aa(lp195
F0.9374225524338109
aF-0.05076090171525023
aI759
aa(lp196
F0.8603393455388196
aF-0.32616156949482195
aI5094
aa(lp197
F0.17742948241566434
aF0.09865074994579048
aI431
aa(lp198
F0.6025288012820191
aF-0.38368117813089025
aI883
aa(lp199
F0.8440732879139478
aF0.0917168352663202
aI1376
aa(lp200
F0.40453505262771033
aF-0.21616677396496783
aI577
aa(lp201
F0.5283594678184806
aF-0.2852297822165908
aI1084
aa(lp202
F0.1627756273254032
aF-0.2298551531422437
aI208
aa.